Archive member included to satisfy reference by file (symbol)

arch/arm/lib/lib.a(ashldi3.o)
                              drivers/mmc/built-in.o (__aeabi_llsl)
arch/arm/lib/lib.a(lib1funcs.o)
                              cmd/built-in.o (__aeabi_uidiv)
arch/arm/lib/lib.a(lshrdi3.o)
                              fs/built-in.o (__aeabi_llsr)
arch/arm/lib/lib.a(div0.o)    arch/arm/lib/lib.a(lib1funcs.o) (__div0)

Discarded input sections

 .data          0x00000000        0x0 arch/arm/cpu/armv7/start.o
 .bss           0x00000000        0x0 arch/arm/cpu/armv7/start.o
 .text.v7_arch_cp15_set_l2aux_ctrl
                0x00000000        0x8 arch/arm/cpu/armv7/built-in.o
 .text.v7_arch_cp15_set_acr
                0x00000000        0x8 arch/arm/cpu/armv7/built-in.o
 .text.sdelay   0x00000000        0xc arch/arm/cpu/armv7/built-in.o
 .text.wait_on_value
                0x00000000       0x38 arch/arm/cpu/armv7/built-in.o
 .data          0x00000000        0x0 arch/arm/cpu/armv7/built-in.o
 .bss           0x00000000        0x0 arch/arm/cpu/armv7/built-in.o
 .text.armv7_boot_nonsec_default
                0x00000000        0x8 arch/arm/lib/built-in.o
 .text.enable_caches
                0x00000000        0xc arch/arm/lib/built-in.o
 .text.invalidate_dcache_range
                0x00000000        0x4 arch/arm/lib/built-in.o
 .text.flush_dcache_range
                0x00000000        0x4 arch/arm/lib/built-in.o
 .text.flush_dcache_all
                0x00000000        0xc arch/arm/lib/built-in.o
 .text.arm_init_before_mmu
                0x00000000        0x4 arch/arm/lib/built-in.o
 .text.mmu_page_table_flush
                0x00000000        0x4 arch/arm/lib/built-in.o
 .text.icache_status
                0x00000000       0x24 arch/arm/lib/built-in.o
 .text.fdt_psci
                0x00000000        0x8 arch/arm/lib/built-in.o
 .rodata.enable_caches.str1.1
                0x00000000       0x1d arch/arm/lib/built-in.o
 .data          0x00000000        0x0 arch/arm/lib/built-in.o
 .__secure_end  0x00000000        0x0 arch/arm/lib/built-in.o
 .__secure_stack_end
                0x00000000        0x0 arch/arm/lib/built-in.o
 .__secure_stack_start
                0x00000000        0x0 arch/arm/lib/built-in.o
 .__secure_start
                0x00000000        0x0 arch/arm/lib/built-in.o
 .bss           0x00000000        0x0 arch/arm/lib/built-in.o
 .text          0x00000000        0x0 arch/arm/mach-bcm283x/built-in.o
 .data          0x00000000        0x0 arch/arm/mach-bcm283x/built-in.o
 .bss           0x00000000        0x0 arch/arm/mach-bcm283x/built-in.o
 .data          0x00000000        0x0 board/raspberrypi/rpi/built-in.o
 .bss           0x00000000        0x0 board/raspberrypi/rpi/built-in.o
 .text          0x00000000        0x0 cmd/built-in.o
 .text.bootz_setup
                0x00000000       0x18 cmd/built-in.o
 .text.name_to_gpio
                0x00000000        0xc cmd/built-in.o
 .rodata.bootz_setup.str1.1
                0x00000000       0x34 cmd/built-in.o
 .data          0x00000000        0x0 cmd/built-in.o
 .bss           0x00000000        0x0 cmd/built-in.o
 .text          0x00000000        0x0 common/built-in.o
 .text.hash_finish_crc32
                0x00000000       0x30 common/built-in.o
 .text.hash_update_crc32
                0x00000000       0x24 common/built-in.o
 .text.hash_init_crc32
                0x00000000       0x24 common/built-in.o
 .text.hash_lookup_algo
                0x00000000       0x28 common/built-in.o
 .text.hash_progressive_lookup_algo
                0x00000000       0x3c common/built-in.o
 .text.hash_parse_string
                0x00000000       0x68 common/built-in.o
 .text.hash_block
                0x00000000       0x6c common/built-in.o
 .text.unset_local_var
                0x00000000       0xa0 common/built-in.o
 .text.arch_cpu_init
                0x00000000        0x8 common/built-in.o
 .text.red_led_off
                0x00000000        0x4 common/built-in.o
 .text.green_led_on
                0x00000000        0x4 common/built-in.o
 .text.green_led_off
                0x00000000        0x4 common/built-in.o
 .text.yellow_led_on
                0x00000000        0x4 common/built-in.o
 .text.yellow_led_off
                0x00000000        0x4 common/built-in.o
 .text.blue_led_on
                0x00000000        0x4 common/built-in.o
 .text.blue_led_off
                0x00000000        0x4 common/built-in.o
 .text.board_get_usable_ram_top
                0x00000000        0xc common/built-in.o
 .text.arch_reserve_stacks
                0x00000000        0x8 common/built-in.o
 .text.board_flash_wp_on
                0x00000000        0x8 common/built-in.o
 .text.fixup_cpu
                0x00000000        0x8 common/built-in.o
 .text.env_flags_parse_varaccess_from_binflags
                0x00000000       0x54 common/built-in.o
 .text.fdt_read_prop
                0x00000000       0x64 common/built-in.o
 .text.fdt_getprop_u32_default_node
                0x00000000       0x40 common/built-in.o
 .text.fdt_getprop_u32_default
                0x00000000       0x3c common/built-in.o
 .text.do_fixup_by_path_u32
                0x00000000       0x2c common/built-in.o
 .text.do_fixup_by_prop
                0x00000000       0x9c common/built-in.o
 .text.do_fixup_by_prop_u32
                0x00000000       0x38 common/built-in.o
 .text.do_fixup_by_compat
                0x00000000       0x8c common/built-in.o
 .text.do_fixup_by_compat_u32
                0x00000000       0x2c common/built-in.o
 .text.fdt_increase_size
                0x00000000       0x14 common/built-in.o
 .text.fdt_del_node_and_alias
                0x00000000       0x44 common/built-in.o
 .text.fdt_node_offset_by_compat_reg
                0x00000000       0x8c common/built-in.o
 .text.fdt_alloc_phandle
                0x00000000       0x58 common/built-in.o
 .text.fdt_set_phandle
                0x00000000       0x60 common/built-in.o
 .text.fdt_create_phandle
                0x00000000       0x64 common/built-in.o
 .text.fdt_set_node_status
                0x00000000       0xe8 common/built-in.o
 .text.fdt_set_status_by_alias
                0x00000000       0x2c common/built-in.o
 .text.fdt_add_edid
                0x00000000       0xac common/built-in.o
 .text.fdt_verify_alias_address
                0x00000000       0xcc common/built-in.o
 .text.fdt_get_base_address
                0x00000000       0x54 common/built-in.o
 .text.fdt_read_range
                0x00000000      0x13c common/built-in.o
 .text.fdt_fixup_display
                0x00000000       0xd4 common/built-in.o
 .text.mdio_alloc
                0x00000000       0x30 common/built-in.o
 .text.mdio_free
                0x00000000        0x4 common/built-in.o
 .text.mdio_register
                0x00000000       0x88 common/built-in.o
 .text.mdio_register_seq
                0x00000000       0x34 common/built-in.o
 .text.mdio_unregister
                0x00000000       0x3c common/built-in.o
 .text.mdio_list_devices
                0x00000000       0xac common/built-in.o
 .text.mdio_get_current_dev
                0x00000000       0x10 common/built-in.o
 .text.mdio_phydev_for_ethname
                0x00000000       0x88 common/built-in.o
 .text.miiphy_reset
                0x00000000       0xa4 common/built-in.o
 .text.usb_detect_change
                0x00000000       0x6c common/built-in.o
 .text.usb_get_report
                0x00000000       0x5c common/built-in.o
 .text.usb_get_class_descriptor
                0x00000000       0x5c common/built-in.o
 .text.board_usb_cleanup
                0x00000000        0x8 common/built-in.o
 .text.usb_stor_reset
                0x00000000       0x14 common/built-in.o
 .text.iomux_printdevs
                0x00000000       0x58 common/built-in.o
 .text.splash_screen_prepare
                0x00000000        0x8 common/built-in.o
 .text.lcd_get_size
                0x00000000       0x34 common/built-in.o
 .text.lcd_setmem
                0x00000000       0x34 common/built-in.o
 .text.lcd_get_screen_rows
                0x00000000       0x10 common/built-in.o
 .text.lcd_get_screen_columns
                0x00000000       0x10 common/built-in.o
 .text.console_calc_rowcol
                0x00000000       0x14 common/built-in.o
 .text.lcd_printf
                0x00000000       0x44 common/built-in.o
 .text.lcd_dt_simplefb_enable_existing_node
                0x00000000       0x34 common/built-in.o
 .text.menu_default_choice
                0x00000000       0x1c common/built-in.o
 .text.overwrite_console
                0x00000000        0x8 common/built-in.o
 .text.fgetc    0x00000000       0x40 common/built-in.o
 .text.ftstc    0x00000000       0x14 common/built-in.o
 .text.fputc    0x00000000        0xc common/built-in.o
 .text.fputs    0x00000000        0xc common/built-in.o
 .text.fprintf  0x00000000       0x4c common/built-in.o
 .text.confirm_yesno
                0x00000000       0xcc common/built-in.o
 .text.valloc   0x00000000        0xc common/built-in.o
 .text.pvalloc  0x00000000       0x18 common/built-in.o
 .text.cfree    0x00000000        0x4 common/built-in.o
 .text.malloc_usable_size
                0x00000000       0x44 common/built-in.o
 .text.mallopt  0x00000000       0x54 common/built-in.o
 .text.memalign_simple
                0x00000000       0x44 common/built-in.o
 .text.genimg_get_short_name
                0x00000000       0x1c common/built-in.o
 .text.genimg_get_cat_name
                0x00000000       0x5c common/built-in.o
 .text.genimg_get_cat_short_name
                0x00000000       0x5c common/built-in.o
 .text.genimg_get_cat_count
                0x00000000       0x18 common/built-in.o
 .text.genimg_get_cat_desc
                0x00000000       0x18 common/built-in.o
 .text.genimg_get_type_short_name
                0x00000000       0x10 common/built-in.o
 .text.genimg_get_comp_short_name
                0x00000000       0x10 common/built-in.o
 .text.genimg_get_os_short_name
                0x00000000       0x10 common/built-in.o
 .text.genimg_get_arch_short_name
                0x00000000       0x10 common/built-in.o
 .text.get_table_entry_id
                0x00000000       0x4c common/built-in.o
 .text.genimg_get_os_id
                0x00000000       0x18 common/built-in.o
 .text.genimg_get_arch_id
                0x00000000       0x18 common/built-in.o
 .text.genimg_get_type_id
                0x00000000       0x18 common/built-in.o
 .text.genimg_get_comp_id
                0x00000000       0x18 common/built-in.o
 .text.get_ram_size
                0x00000000       0xdc common/built-in.o
 .text.stdio_deregister
                0x00000000       0x28 common/built-in.o
 .text.stdio_init
                0x00000000       0x14 common/built-in.o
 .text.cli_simple_parse_line
                0x00000000       0x88 common/built-in.o
 .text.cli_simple_run_command
                0x00000000      0x158 common/built-in.o
 .text.cli_simple_loop
                0x00000000       0x80 common/built-in.o
 .text.cli_simple_run_command_list
                0x00000000       0x74 common/built-in.o
 .text.run_command_repeatable
                0x00000000       0x1c common/built-in.o
 .rodata.env_flags_parse_varaccess_from_binflags.str1.1
                0x00000000       0x2c common/built-in.o
 .rodata.fdt_add_edid.str1.1
                0x00000000       0x3b common/built-in.o
 .rodata.fdt_create_phandle.str1.1
                0x00000000       0x1a common/built-in.o
 .rodata.fdt_fixup_display.str1.1
                0x00000000       0x1c common/built-in.o
 .rodata.fdt_read_range.str1.1
                0x00000000        0xf common/built-in.o
 .rodata.fdt_set_phandle.str1.1
                0x00000000       0x16 common/built-in.o
 .rodata.fdt_verify_alias_address.str1.1
                0x00000000       0xcd common/built-in.o
 .rodata.mdio_phydev_for_ethname.str1.1
                0x00000000       0x1c common/built-in.o
 .rodata.mdio_register.str1.1
                0x00000000       0x2c common/built-in.o
 .rodata.mdio_register_seq.str1.1
                0x00000000        0x6 common/built-in.o
 .rodata.miiphy_reset.str1.1
                0x00000000       0x15 common/built-in.o
 .rodata.iomux_printdevs.str1.1
                0x00000000        0x6 common/built-in.o
 .rodata.lcd_dt_simplefb_enable_existing_node.str1.1
                0x00000000       0x13 common/built-in.o
 .rodata.confirm_yesno.str1.1
                0x00000000       0x10 common/built-in.o
 .rodata.genimg_get_arch_id.str1.1
                0x00000000        0x4 common/built-in.o
 .rodata.genimg_get_comp_id.str1.1
                0x00000000        0xc common/built-in.o
 .rodata.genimg_get_os_id.str1.1
                0x00000000        0x3 common/built-in.o
 .rodata.genimg_get_short_name.str1.1
                0x00000000        0x8 common/built-in.o
 .rodata.genimg_get_type_id.str1.1
                0x00000000        0x6 common/built-in.o
 .rodata.table_info
                0x00000000       0x30 common/built-in.o
 .rodata.unknown_str.8395
                0x00000000        0x9 common/built-in.o
 .rodata.cli_simple_loop.str1.1
                0x00000000       0x16 common/built-in.o
 .rodata.cli_simple_parse_line.str1.1
                0x00000000       0x1f common/built-in.o
 .rodata.cli_simple_run_command.str1.1
                0x00000000       0x16 common/built-in.o
 .data          0x00000000        0x0 common/built-in.o
 .data.hash_algo
                0x00000000       0x1c common/built-in.o
 .bss           0x00000000        0x0 common/built-in.o
 .bss.env_ptr   0x00000000        0x4 common/built-in.o
 .bss.msg.8396  0x00000000       0x1e common/built-in.o
 .bss.save_addr
                0x00000000        0x4 common/built-in.o
 .bss.save_size
                0x00000000        0x4 common/built-in.o
 .bss.lastcommand.7178
                0x00000000      0x401 common/built-in.o
 .text          0x00000000        0x0 disk/built-in.o
 .text.part_get_info_by_name
                0x00000000       0x9c disk/built-in.o
 .text.is_valid_dos_buf
                0x00000000       0x18 disk/built-in.o
 .text.write_mbr_partition
                0x00000000       0x68 disk/built-in.o
 .text.set_protective_mbr
                0x00000000       0xc8 disk/built-in.o
 .text.write_gpt_table
                0x00000000      0x380 disk/built-in.o
 .text.gpt_fill_pte
                0x00000000      0x2a8 disk/built-in.o
 .text.gpt_fill_header
                0x00000000      0x1a0 disk/built-in.o
 .text.gpt_restore
                0x00000000       0xf4 disk/built-in.o
 .text.gpt_verify_headers
                0x00000000       0x7c disk/built-in.o
 .text.gpt_verify_partitions
                0x00000000      0x274 disk/built-in.o
 .text.is_valid_gpt_buf
                0x00000000       0x70 disk/built-in.o
 .text.write_mbr_and_gpt_partitions
                0x00000000      0x3e0 disk/built-in.o
 .rodata        0x00000000       0x10 disk/built-in.o
 .rodata.__func__.7127
                0x00000000       0x14 disk/built-in.o
 .rodata.write_mbr_partition.str1.1
                0x00000000       0x2d disk/built-in.o
 .rodata.__func__.7211
                0x00000000       0x13 disk/built-in.o
 .rodata.__func__.7261
                0x00000000        0xc disk/built-in.o
 .rodata.__func__.7279
                0x00000000       0x13 disk/built-in.o
 .rodata.__func__.7292
                0x00000000       0x16 disk/built-in.o
 .rodata.__func__.7312
                0x00000000       0x1d disk/built-in.o
 .rodata.gpt_fill_pte.str1.1
                0x00000000       0x5b disk/built-in.o
 .rodata.gpt_verify_partitions.str1.1
                0x00000000      0x10b disk/built-in.o
 .rodata.set_protective_mbr.str1.1
                0x00000000       0x34 disk/built-in.o
 .rodata.write_mbr_and_gpt_partitions.str1.1
                0x00000000       0x7c disk/built-in.o
 .data          0x00000000        0x0 disk/built-in.o
 .bss           0x00000000        0x0 disk/built-in.o
 .text          0x00000000        0x0 drivers/built-in.o
 .text._device_find_global_by_of_offset
                0x00000000       0x50 drivers/built-in.o
 .text.device_bind
                0x00000000       0x28 drivers/built-in.o
 .text.dev_get_parent_platdata
                0x00000000       0x30 drivers/built-in.o
 .text.dev_get_parent_priv
                0x00000000       0x30 drivers/built-in.o
 .text.device_get_child
                0x00000000       0x50 drivers/built-in.o
 .text.device_find_child_by_seq
                0x00000000       0x68 drivers/built-in.o
 .text.device_get_child_by_seq
                0x00000000       0x58 drivers/built-in.o
 .text.device_find_child_by_of_offset
                0x00000000       0x4c drivers/built-in.o
 .text.device_get_child_by_of_offset
                0x00000000       0x3c drivers/built-in.o
 .text.device_get_global_by_of_offset
                0x00000000       0x40 drivers/built-in.o
 .text.device_find_first_child
                0x00000000       0x1c drivers/built-in.o
 .text.device_find_next_child
                0x00000000       0x28 drivers/built-in.o
 .text.dev_get_parent
                0x00000000        0x8 drivers/built-in.o
 .text.dev_get_driver_data
                0x00000000        0x8 drivers/built-in.o
 .text.dev_get_driver_ops
                0x00000000       0x10 drivers/built-in.o
 .text.device_get_uclass_id
                0x00000000       0x10 drivers/built-in.o
 .text.dev_get_uclass_name
                0x00000000       0x14 drivers/built-in.o
 .text.dev_get_addr_size_index
                0x00000000       0x40 drivers/built-in.o
 .text.dev_get_addr_name
                0x00000000       0x34 drivers/built-in.o
 .text.dev_get_addr_ptr
                0x00000000        0x8 drivers/built-in.o
 .text.dev_map_physmem
                0x00000000       0x14 drivers/built-in.o
 .text.device_has_children
                0x00000000       0x14 drivers/built-in.o
 .text.device_has_active_children
                0x00000000       0x40 drivers/built-in.o
 .text.device_is_last_sibling
                0x00000000       0x24 drivers/built-in.o
 .text.device_set_name_alloced
                0x00000000       0x10 drivers/built-in.o
 .text.device_set_name
                0x00000000       0x30 drivers/built-in.o
 .text.of_device_is_compatible
                0x00000000       0x24 drivers/built-in.o
 .text.of_machine_is_compatible
                0x00000000       0x24 drivers/built-in.o
 .text.device_bind_driver_to_node
                0x00000000       0x48 drivers/built-in.o
 .text.device_bind_driver
                0x00000000       0x18 drivers/built-in.o
 .text.dm_fixup_for_gd_move
                0x00000000       0x18 drivers/built-in.o
 .text.dm_set_translation_offset
                0x00000000       0x18 drivers/built-in.o
 .text.dm_uninit
                0x00000000       0x1c drivers/built-in.o
 .text.uclass_destroy
                0x00000000       0x98 drivers/built-in.o
 .text.uclass_get_name
                0x00000000       0x28 drivers/built-in.o
 .text.uclass_find_device_by_name
                0x00000000       0x88 drivers/built-in.o
 .text.uclass_get_device_by_name
                0x00000000       0x30 drivers/built-in.o
 .text.uclass_get_device_by_phandle
                0x00000000       0xa0 drivers/built-in.o
 .text.uclass_first_device_err
                0x00000000       0x24 drivers/built-in.o
 .text.dm_dbg   0x00000000       0x28 drivers/built-in.o
 .text.list_count_items
                0x00000000       0x28 drivers/built-in.o
 .text.device_unbind
                0x00000000      0x144 drivers/built-in.o
 .text.simple_bus_translate
                0x00000000       0x38 drivers/built-in.o
 .text.blk_list_part
                0x00000000       0x90 drivers/built-in.o
 .text.blk_print_part_devnum
                0x00000000       0x50 drivers/built-in.o
 .text.blk_list_devices
                0x00000000       0x74 drivers/built-in.o
 .text.blk_print_device_num
                0x00000000       0x54 drivers/built-in.o
 .text.blk_show_device
                0x00000000       0x84 drivers/built-in.o
 .text.blk_read_devnum
                0x00000000       0x78 drivers/built-in.o
 .text.blk_write_devnum
                0x00000000       0x54 drivers/built-in.o
 .text._input_send_keycodes
                0x00000000      0x408 drivers/built-in.o
 .text.input_tstc
                0x00000000       0x48 drivers/built-in.o
 .text.input_getc
                0x00000000       0x5c drivers/built-in.o
 .text.input_send_keycodes
                0x00000000        0x8 drivers/built-in.o
 .text.input_add_keycode
                0x00000000       0x84 drivers/built-in.o
 .text.input_add_table
                0x00000000       0x40 drivers/built-in.o
 .text.input_set_delays
                0x00000000        0xc drivers/built-in.o
 .text.input_allow_repeats
                0x00000000        0x8 drivers/built-in.o
 .text.input_leds_changed
                0x00000000       0x14 drivers/built-in.o
 .text.input_add_tables
                0x00000000       0xb0 drivers/built-in.o
 .text.input_init
                0x00000000       0x24 drivers/built-in.o
 .text.input_stdio_register
                0x00000000       0x54 drivers/built-in.o
 .text.create_keymap
                0x00000000       0x90 drivers/built-in.o
 .text.key_matrix_decode
                0x00000000       0xe8 drivers/built-in.o
 .text.key_matrix_decode_fdt
                0x00000000       0xc8 drivers/built-in.o
 .text.key_matrix_init
                0x00000000       0x3c drivers/built-in.o
 .rodata.__func__.9315
                0x00000000       0x18 drivers/built-in.o
 .rodata.__func__.9331
                0x00000000       0x14 drivers/built-in.o
 .rodata.dev_get_addr_name.str1.1
                0x00000000        0xa drivers/built-in.o
 .rodata.blk_list_devices.str1.1
                0x00000000        0xc drivers/built-in.o
 .rodata.blk_print_device_num.str1.1
                0x00000000       0x10 drivers/built-in.o
 .rodata.blk_show_device.str1.1
                0x00000000       0x1d drivers/built-in.o
 .rodata.CSWTCH.35
                0x00000000        0xd drivers/built-in.o
 .rodata.input_stdio_register.str1.1
                0x00000000        0x6 drivers/built-in.o
 .rodata.kbd_plain_xlate
                0x00000000       0x64 drivers/built-in.o
 .rodata.kbd_plain_xlate_german
                0x00000000       0x84 drivers/built-in.o
 .rodata.kbd_to_ansi364
                0x00000000       0x20 drivers/built-in.o
 .rodata.key_matrix_decode_fdt.str1.1
                0x00000000       0x1d drivers/built-in.o
 .data          0x00000000        0x0 drivers/built-in.o
 .data.kbd_ctrl_xlate
                0x00000000       0x64 drivers/built-in.o
 .data.kbd_entry
                0x00000000       0x8c drivers/built-in.o
 .data.kbd_right_alt_xlate_german
                0x00000000       0x58 drivers/built-in.o
 .data.kbd_shift_xlate
                0x00000000       0x64 drivers/built-in.o
 .data.kbd_shift_xlate_german
                0x00000000       0x84 drivers/built-in.o
 .bss           0x00000000        0x0 drivers/built-in.o
 .text          0x00000000        0x0 drivers/gpio/built-in.o
 .text.gpio_xlate_offs_flags
                0x00000000       0x44 drivers/gpio/built-in.o
 .text.dm_gpio_requestf
                0x00000000       0x44 drivers/gpio/built-in.o
 .text.gpio_requestf
                0x00000000       0x44 drivers/gpio/built-in.o
 .text.dm_gpio_get_open_drain
                0x00000000       0x50 drivers/gpio/built-in.o
 .text.dm_gpio_set_open_drain
                0x00000000       0x4c drivers/gpio/built-in.o
 .text.dm_gpio_set_dir_flags
                0x00000000       0x98 drivers/gpio/built-in.o
 .text._gpio_request_by_name_nodev
                0x00000000      0x100 drivers/gpio/built-in.o
 .text.dm_gpio_set_dir
                0x00000000        0x8 drivers/gpio/built-in.o
 .text.gpio_claim_vector
                0x00000000       0x80 drivers/gpio/built-in.o
 .text.gpio_get_values_as_int
                0x00000000       0x44 drivers/gpio/built-in.o
 .text.dm_gpio_get_values_as_int
                0x00000000       0x4c drivers/gpio/built-in.o
 .text.gpio_request_by_name_nodev
                0x00000000       0x30 drivers/gpio/built-in.o
 .text.gpio_request_by_name
                0x00000000       0x2c drivers/gpio/built-in.o
 .text.gpio_get_list_count
                0x00000000       0x38 drivers/gpio/built-in.o
 .text.dm_gpio_free
                0x00000000       0x10 drivers/gpio/built-in.o
 .text.gpio_free_list
                0x00000000       0x3c drivers/gpio/built-in.o
 .text.gpio_free_list_nodev
                0x00000000       0x10 drivers/gpio/built-in.o
 .text.gpio_request_list_by_name_nodev
                0x00000000       0x94 drivers/gpio/built-in.o
 .text.gpio_request_list_by_name
                0x00000000       0x2c drivers/gpio/built-in.o
 .text.gpio_get_number
                0x00000000       0x20 drivers/gpio/built-in.o
 .rodata._gpio_request_by_name_nodev.str1.1
                0x00000000       0x1a drivers/gpio/built-in.o
 .rodata.dm_gpio_get_open_drain.str1.1
                0x00000000        0xf drivers/gpio/built-in.o
 .rodata.dm_gpio_set_dir_flags.str1.1
                0x00000000        0x8 drivers/gpio/built-in.o
 .rodata.dm_gpio_set_open_drain.str1.1
                0x00000000        0xf drivers/gpio/built-in.o
 .data          0x00000000        0x0 drivers/gpio/built-in.o
 .bss           0x00000000        0x0 drivers/gpio/built-in.o
 .text          0x00000000        0x0 drivers/mmc/built-in.o
 .text.mmc_destroy
                0x00000000        0x4 drivers/mmc/built-in.o
 .text.board_mmc_init
                0x00000000        0x8 drivers/mmc/built-in.o
 .text.mmc_set_preinit
                0x00000000        0x8 drivers/mmc/built-in.o
 .data          0x00000000        0x0 drivers/mmc/built-in.o
 .bss           0x00000000        0x0 drivers/mmc/built-in.o
 .text          0x00000000        0x0 drivers/serial/built-in.o
 .data          0x00000000        0x0 drivers/serial/built-in.o
 .bss           0x00000000        0x0 drivers/serial/built-in.o
 .text          0x00000000        0x0 drivers/spi/built-in.o
 .text.spi_set_wordlen
                0x00000000       0x30 drivers/spi/built-in.o
 .text.spi_do_alloc_slave
                0x00000000       0x4c drivers/spi/built-in.o
 .rodata.spi_set_wordlen.str1.1
                0x00000000       0x19 drivers/spi/built-in.o
 .data          0x00000000        0x0 drivers/spi/built-in.o
 .bss           0x00000000        0x0 drivers/spi/built-in.o
 .comment       0x00000000       0x35 drivers/spi/built-in.o
 .note.GNU-stack
                0x00000000        0x0 drivers/spi/built-in.o
 .ARM.attributes
                0x00000000       0x2d drivers/spi/built-in.o
 .debug_aranges
                0x00000000       0x28 drivers/spi/built-in.o
 .debug_info    0x00000000      0xd0f drivers/spi/built-in.o
 .debug_abbrev  0x00000000      0x22b drivers/spi/built-in.o
 .debug_line    0x00000000      0x185 drivers/spi/built-in.o
 .debug_frame   0x00000000       0x4c drivers/spi/built-in.o
 .debug_str     0x00000000      0xa48 drivers/spi/built-in.o
 .debug_loc     0x00000000      0x10f drivers/spi/built-in.o
 .debug_ranges  0x00000000       0x18 drivers/spi/built-in.o
 .text          0x00000000        0x0 drivers/usb/eth/built-in.o
 .text.is_eth_dev_on_usb_host
                0x00000000       0x6c drivers/usb/eth/built-in.o
 .data          0x00000000        0x0 drivers/usb/eth/built-in.o
 .bss           0x00000000        0x0 drivers/usb/eth/built-in.o
 .text          0x00000000        0x0 drivers/usb/host/built-in.o
 .data          0x00000000        0x0 drivers/usb/host/built-in.o
 .bss           0x00000000        0x0 drivers/usb/host/built-in.o
 .text          0x00000000        0x0 dts/built-in.o
 .data          0x00000000        0x0 dts/built-in.o
 .bss           0x00000000        0x0 dts/built-in.o
 .text          0x00000000        0x0 fs/built-in.o
 .text.fs_uuid  0x00000000       0x28 fs/built-in.o
 .text.do_fs_uuid
                0x00000000       0x8c fs/built-in.o
 .text.fat_register_device
                0x00000000       0x8c fs/built-in.o
 .text.file_getfsname
                0x00000000       0x14 fs/built-in.o
 .text.file_cd  0x00000000      0x1c8 fs/built-in.o
 .text.file_detectfs
                0x00000000       0x40 fs/built-in.o
 .text.file_ls  0x00000000       0x94 fs/built-in.o
 .text.file_read
                0x00000000       0xa4 fs/built-in.o
 .rodata.fat_register_device.str1.1
                0x00000000       0x2b fs/built-in.o
 .rodata.file_detectfs.str1.1
                0x00000000        0x2 fs/built-in.o
 .rodata.file_ls.str1.1
                0x00000000       0x2e fs/built-in.o
 .rodata.file_read.str1.1
                0x00000000       0x27 fs/built-in.o
 .rodata.filesystems
                0x00000000       0x18 fs/built-in.o
 .data          0x00000000        0x0 fs/built-in.o
 .data.current_filesystem
                0x00000000        0x4 fs/built-in.o
 .data.file_cwd
                0x00000000      0x200 fs/built-in.o
 .bss           0x00000000        0x0 fs/built-in.o
 .bss.ext4fs_symlinknest
                0x00000000        0x4 fs/built-in.o
 .bss.g_parent_inode
                0x00000000        0x4 fs/built-in.o
 .text          0x00000000        0x0 lib/built-in.o
 .text.invalidate_icache_all
                0x00000000        0x4 lib/built-in.o
 .text.efi_reset_system_init
                0x00000000        0x4 lib/built-in.o
 .text.inflateInit_
                0x00000000       0x10 lib/built-in.o
 .text.crc7     0x00000000       0x28 lib/built-in.o
 .text.crc8     0x00000000       0x4c lib/built-in.o
 .text.lmb_dump_all
                0x00000000        0x4 lib/built-in.o
 .text.lmb_is_reserved
                0x00000000       0x58 lib/built-in.o
 .text.arch_lmb_reserve
                0x00000000        0x4 lib/built-in.o
 .text.ldiv     0x00000000       0x50 lib/built-in.o
 .text.rc4_encode
                0x00000000       0xe8 lib/built-in.o
 .text.fdt_get_phandle
                0x00000000       0x70 lib/built-in.o
 .text.fdt_get_max_phandle
                0x00000000       0x74 lib/built-in.o
 .text.fdt_get_alias
                0x00000000       0x28 lib/built-in.o
 .text.fdt_get_path
                0x00000000      0x138 lib/built-in.o
 .text.fdt_node_offset_by_prop_value
                0x00000000       0x98 lib/built-in.o
 .text.fdt_node_offset_by_phandle
                0x00000000       0x6c lib/built-in.o
 .text.fdt_stringlist_contains
                0x00000000       0x7c lib/built-in.o
 .text.fdt_stringlist_count
                0x00000000       0x64 lib/built-in.o
 .text.fdt_stringlist_search
                0x00000000       0xa4 lib/built-in.o
 .text.fdt_stringlist_get
                0x00000000       0xac lib/built-in.o
 .text.fdt_node_check_compatible
                0x00000000       0x40 lib/built-in.o
 .text.fdt_node_offset_by_compatible
                0x00000000       0x74 lib/built-in.o
 .text.fdt_appendprop
                0x00000000       0xdc lib/built-in.o
 .text.fdt_pack
                0x00000000       0x5c lib/built-in.o
 .text.fdt_remove_unused_strings
                0x00000000       0xb0 lib/built-in.o
 .text._fdt_sw_check_header
                0x00000000       0x1c lib/built-in.o
 .text._fdt_grab_space
                0x00000000       0x60 lib/built-in.o
 .text.fdt_create
                0x00000000       0x64 lib/built-in.o
 .text.fdt_resize
                0x00000000       0xbc lib/built-in.o
 .text.fdt_add_reservemap_entry
                0x00000000       0x8c lib/built-in.o
 .text.fdt_finish_reservemap
                0x00000000       0x1c lib/built-in.o
 .text.fdt_begin_node
                0x00000000       0x64 lib/built-in.o
 .text.fdt_end_node
                0x00000000       0x38 lib/built-in.o
 .text.fdt_property_placeholder
                0x00000000      0x110 lib/built-in.o
 .text.fdt_property
                0x00000000       0x3c lib/built-in.o
 .text.fdt_finish
                0x00000000      0x100 lib/built-in.o
 .text.fdt_setprop_inplace_namelen_partial
                0x00000000       0x54 lib/built-in.o
 .text.fdt_setprop_inplace
                0x00000000       0x74 lib/built-in.o
 .text.fdt_nop_property
                0x00000000       0x40 lib/built-in.o
 .text.fdt_nop_node
                0x00000000       0x50 lib/built-in.o
 .text.fdt_find_regions
                0x00000000      0x384 lib/built-in.o
 .text.fdt_create_empty_tree
                0x00000000       0x74 lib/built-in.o
 .text.fdt_add_region
                0x00000000       0x94 lib/built-in.o
 .text.fdt_add_alias_regions
                0x00000000      0x190 lib/built-in.o
 .text.fdt_next_region
                0x00000000      0x534 lib/built-in.o
 .text.fdt_first_region
                0x00000000       0x48 lib/built-in.o
 .text.fdtdec_get_uint
                0x00000000       0x34 lib/built-in.o
 .text.fdtdec_get_compatible
                0x00000000       0x10 lib/built-in.o
 .text.fdtdec_get_uint64
                0x00000000       0x40 lib/built-in.o
 .text.fdtdec_lookup
                0x00000000       0x48 lib/built-in.o
 .text.fdtdec_next_compatible
                0x00000000       0x10 lib/built-in.o
 .text.fdtdec_next_compatible_subnode
                0x00000000       0x64 lib/built-in.o
 .text.fdtdec_next_alias
                0x00000000       0x94 lib/built-in.o
 .text.fdtdec_add_aliases_for_id
                0x00000000      0x254 lib/built-in.o
 .text.fdtdec_find_aliases_for_id
                0x00000000       0x44 lib/built-in.o
 .text.fdtdec_check_fdt
                0x00000000       0x10 lib/built-in.o
 .text.fdtdec_lookup_phandle
                0x00000000       0x34 lib/built-in.o
 .text.decode_timing_property
                0x00000000       0x80 lib/built-in.o
 .text.fdtdec_get_int_array_count
                0x00000000       0x58 lib/built-in.o
 .text.fdtdec_locate_array
                0x00000000       0x28 lib/built-in.o
 .text.fdtdec_parse_phandle_with_args
                0x00000000      0x15c lib/built-in.o
 .text.fdtdec_get_child_count
                0x00000000       0x34 lib/built-in.o
 .text.fdtdec_get_byte_array
                0x00000000       0x40 lib/built-in.o
 .text.fdtdec_locate_byte_array
                0x00000000       0x24 lib/built-in.o
 .text.fdtdec_get_config_bool
                0x00000000       0x44 lib/built-in.o
 .text.fdtdec_decode_region
                0x00000000       0x54 lib/built-in.o
 .text.fdtdec_read_fmap_entry
                0x00000000       0xd4 lib/built-in.o
 .text.fdtdec_get_number
                0x00000000       0x48 lib/built-in.o
 .text.fdtdec_get_addr_size_fixed
                0x00000000       0xbc lib/built-in.o
 .text.fdtdec_get_addr_size_auto_parent
                0x00000000       0x6c lib/built-in.o
 .text.fdtdec_get_addr_size_auto_noparent
                0x00000000       0x54 lib/built-in.o
 .text.fdtdec_get_addr_size
                0x00000000       0x34 lib/built-in.o
 .text.fdtdec_get_addr
                0x00000000        0x8 lib/built-in.o
 .text.fdt_get_resource
                0x00000000       0xe0 lib/built-in.o
 .text.fdt_get_named_resource
                0x00000000       0x40 lib/built-in.o
 .text.fdtdec_decode_memory_region
                0x00000000      0x130 lib/built-in.o
 .text.fdtdec_decode_display_timing
                0x00000000      0x2d4 lib/built-in.o
 .text.fdtdec_setup_memory_size
                0x00000000       0x64 lib/built-in.o
 .text.fdtdec_setup_memory_banksize
                0x00000000       0x7c lib/built-in.o
 .text.print_freq
                0x00000000      0x1b0 lib/built-in.o
 .text.crc32_wd_buf
                0x00000000       0x38 lib/built-in.o
 .text.copy_from_user
                0x00000000       0x10 lib/built-in.o
 .text.kmalloc  0x00000000       0x38 lib/built-in.o
 .text.get_mem  0x00000000       0x1c lib/built-in.o
 .text.kmem_cache_alloc
                0x00000000        0xc lib/built-in.o
 .text.membuff_purge
                0x00000000       0x10 lib/built-in.o
 .text.membuff_putraw
                0x00000000       0xbc lib/built-in.o
 .text.membuff_putbyte
                0x00000000       0x30 lib/built-in.o
 .text.membuff_getraw
                0x00000000       0x98 lib/built-in.o
 .text.membuff_getbyte
                0x00000000       0x34 lib/built-in.o
 .text.membuff_peekbyte
                0x00000000       0x30 lib/built-in.o
 .text.membuff_get
                0x00000000       0x80 lib/built-in.o
 .text.membuff_put
                0x00000000       0x60 lib/built-in.o
 .text.membuff_isempty
                0x00000000       0x18 lib/built-in.o
 .text.membuff_avail
                0x00000000       0x54 lib/built-in.o
 .text.membuff_size
                0x00000000        0xc lib/built-in.o
 .text.membuff_makecontig
                0x00000000       0x80 lib/built-in.o
 .text.membuff_free
                0x00000000       0x30 lib/built-in.o
 .text.membuff_readline
                0x00000000       0xb0 lib/built-in.o
 .text.membuff_extend_by
                0x00000000       0xc4 lib/built-in.o
 .text.membuff_init
                0x00000000       0x18 lib/built-in.o
 .text.membuff_new
                0x00000000       0x38 lib/built-in.o
 .text.membuff_uninit
                0x00000000       0x18 lib/built-in.o
 .text.membuff_dispose
                0x00000000       0x24 lib/built-in.o
 .text.strcasecmp
                0x00000000        0x8 lib/built-in.o
 .text.strspn   0x00000000       0x3c lib/built-in.o
 .text.strpbrk  0x00000000       0x44 lib/built-in.o
 .text.strtok   0x00000000       0x78 lib/built-in.o
 .text.strsep   0x00000000       0x38 lib/built-in.o
 .text.strswab  0x00000000       0x48 lib/built-in.o
 .text.memchr_inv
                0x00000000      0x130 lib/built-in.o
 .text.table_compute_checksum
                0x00000000       0x2c lib/built-in.o
 .text.timer_read_counter
                0x00000000       0x14 lib/built-in.o
 .text.vsnprintf
                0x00000000        0x4 lib/built-in.o
 .text.scnprintf
                0x00000000       0x28 lib/built-in.o
 .text.__assert_fail
                0x00000000       0x14 lib/built-in.o
 .text.print_grouped_ull
                0x00000000       0x8c lib/built-in.o
 .text.str2off  0x00000000       0x3c lib/built-in.o
 .text.str2long
                0x00000000       0x3c lib/built-in.o
 .text.panic_str
                0x00000000        0xc lib/built-in.o
 .text.strmhz   0x00000000       0x64 lib/built-in.o
 .rodata.z_errmsg
                0x00000000       0x28 lib/built-in.o
 .rodata.crc7_syndrome_table
                0x00000000      0x100 lib/built-in.o
 .rodata.fdt_get_phandle.str1.1
                0x00000000       0x16 lib/built-in.o
 .rodata.fdt_node_check_compatible.str1.1
                0x00000000        0xb lib/built-in.o
 .rodata.fdt_create_empty_tree.str1.1
                0x00000000        0x1 lib/built-in.o
 .rodata.fdt_add_alias_regions.str1.1
                0x00000000        0x8 lib/built-in.o
 .rodata.compat_names
                0x00000000       0x98 lib/built-in.o
 .rodata.fdtdec_decode_display_timing.str1.1
                0x00000000       0xca lib/built-in.o
 .rodata.fdtdec_decode_memory_region.str1.1
                0x00000000       0x21 lib/built-in.o
 .rodata.fdtdec_next_alias.str1.1
                0x00000000        0x7 lib/built-in.o
 .rodata.fdtdec_read_fmap_entry.str1.1
                0x00000000       0x1b lib/built-in.o
 .rodata.names.7223
                0x00000000        0x3 lib/built-in.o
 .rodata.__assert_fail.str1.1
                0x00000000       0x22 lib/built-in.o
 .rodata.print_grouped_ull.str1.1
                0x00000000        0xb lib/built-in.o
 .rodata.strmhz.str1.1
                0x00000000        0xb lib/built-in.o
 .data          0x00000000        0x0 lib/built-in.o
 .data.cur      0x00000000        0x4 lib/built-in.o
 .data.current  0x00000000        0x4 lib/built-in.o
 .bss           0x00000000        0x0 lib/built-in.o
 .bss.___strtok
                0x00000000        0x4 lib/built-in.o
 .text          0x00000000        0x0 net/built-in.o
 .text.add_ip_checksums
                0x00000000       0x3c net/built-in.o
 .text.eth_is_active
                0x00000000       0x18 net/built-in.o
 .text.net_get_udp_handler
                0x00000000       0x10 net/built-in.o
 .text.net_set_arp_handler
                0x00000000       0x20 net/built-in.o
 .text.random_port
                0x00000000       0x18 net/built-in.o
 .text.vlan_to_string
                0x00000000       0x44 net/built-in.o
 .text.getenv_vlan
                0x00000000       0x10 net/built-in.o
 .rodata.vlan_to_string.str1.1
                0x00000000        0x8 net/built-in.o
 .data          0x00000000        0x0 net/built-in.o
 .data.tftp_timeout_ms
                0x00000000        0x4 net/built-in.o
 .bss           0x00000000        0x0 net/built-in.o
 .text          0x00000000        0x0 test/dm/built-in.o
 .data          0x00000000        0x0 test/dm/built-in.o
 .bss           0x00000000        0x0 test/dm/built-in.o
 .text          0x00000000        0x0 arch/arm/lib/eabi_compat.o
 .data          0x00000000        0x0 arch/arm/lib/eabi_compat.o
 .bss           0x00000000        0x0 arch/arm/lib/eabi_compat.o
 .text.raise    0x00000000       0x1c arch/arm/lib/eabi_compat.o
 .text.__aeabi_unwind_cpp_pr0
                0x00000000        0x4 arch/arm/lib/eabi_compat.o
 .text.__aeabi_unwind_cpp_pr1
                0x00000000        0x4 arch/arm/lib/eabi_compat.o
 .text.__aeabi_memcpy
                0x00000000        0x4 arch/arm/lib/eabi_compat.o
 .text.__aeabi_memset
                0x00000000       0x10 arch/arm/lib/eabi_compat.o
 .rodata.raise.str1.1
                0x00000000       0x1b arch/arm/lib/eabi_compat.o
 .debug_info    0x00000000      0xc13 arch/arm/lib/eabi_compat.o
 .debug_abbrev  0x00000000      0x26e arch/arm/lib/eabi_compat.o
 .debug_loc     0x00000000      0x108 arch/arm/lib/eabi_compat.o
 .debug_aranges
                0x00000000       0x38 arch/arm/lib/eabi_compat.o
 .debug_ranges  0x00000000       0x28 arch/arm/lib/eabi_compat.o
 .debug_line    0x00000000      0x190 arch/arm/lib/eabi_compat.o
 .debug_str     0x00000000      0x980 arch/arm/lib/eabi_compat.o
 .comment       0x00000000       0x35 arch/arm/lib/eabi_compat.o
 .note.GNU-stack
                0x00000000        0x0 arch/arm/lib/eabi_compat.o
 .debug_frame   0x00000000       0x68 arch/arm/lib/eabi_compat.o
 .ARM.attributes
                0x00000000       0x2d arch/arm/lib/eabi_compat.o
 .text          0x00000000        0x0 arch/arm/lib/lib.a(ashldi3.o)
 .data          0x00000000        0x0 arch/arm/lib/lib.a(ashldi3.o)
 .bss           0x00000000        0x0 arch/arm/lib/lib.a(ashldi3.o)
 .text          0x00000000        0x0 arch/arm/lib/lib.a(lib1funcs.o)
 .data          0x00000000        0x0 arch/arm/lib/lib.a(lib1funcs.o)
 .bss           0x00000000        0x0 arch/arm/lib/lib.a(lib1funcs.o)
 .text.__umodsi3
                0x00000000       0xa0 arch/arm/lib/lib.a(lib1funcs.o)
 .text.__modsi3
                0x00000000       0xb8 arch/arm/lib/lib.a(lib1funcs.o)
 .text          0x00000000        0x0 arch/arm/lib/lib.a(lshrdi3.o)
 .data          0x00000000        0x0 arch/arm/lib/lib.a(lshrdi3.o)
 .bss           0x00000000        0x0 arch/arm/lib/lib.a(lshrdi3.o)
 .text          0x00000000        0x0 arch/arm/lib/lib.a(div0.o)
 .data          0x00000000        0x0 arch/arm/lib/lib.a(div0.o)
 .bss           0x00000000        0x0 arch/arm/lib/lib.a(div0.o)

Memory Configuration

Name             Origin             Length             Attributes
*default*        0x00000000         0xffffffff

Linker script and memory map

Address of section .text set to 0x8000
                0x00000000                . = 0x0
                0x00000000                . = ALIGN (0x4)

.text           0x00008000    0x3a3b8
 *(.__image_copy_start)
 .__image_copy_start
                0x00008000        0x0 arch/arm/lib/built-in.o
                0x00008000                __image_copy_start
 *(.vectors)
 .vectors       0x00008000      0x2e8 arch/arm/lib/built-in.o
                0x00008000                _start
                0x00008020                _undefined_instruction
                0x00008024                _software_interrupt
                0x00008028                _prefetch_abort
                0x0000802c                _data_abort
                0x00008030                _not_used
                0x00008034                _irq
                0x00008038                _fiq
                0x00008040                IRQ_STACK_START_IN
 arch/arm/cpu/armv7/start.o(.text*)
 .text          0x000082e8       0xb8 arch/arm/cpu/armv7/start.o
                0x000082e8                reset
                0x000082ec                save_boot_params_ret
                0x000082fc                switch_to_hypervisor_ret
                0x00008330                c_runtime_cpu_setup
                0x00008344                switch_to_hypervisor
                0x00008348                cpu_init_cp15
 *(.text*)
 .text          0x000083a0      0x148 arch/arm/cpu/armv7/built-in.o
                0x000083a0                __v7_flush_dcache_all
                0x00008434                v7_flush_dcache_all
                0x00008444                __v7_invalidate_dcache_all
                0x000084d8                v7_invalidate_dcache_all
 .text.invalidate_icache_all
                0x000084e8       0x18 arch/arm/cpu/armv7/built-in.o
                0x000084e8                invalidate_icache_all
 .text.v7_outer_cache_enable
                0x00008500        0x4 arch/arm/cpu/armv7/built-in.o
                0x00008500                v7_outer_cache_enable
 .text.v7_outer_cache_disable
                0x00008504        0x4 arch/arm/cpu/armv7/built-in.o
                0x00008504                v7_outer_cache_disable
 .text.v7_outer_cache_flush_all
                0x00008508        0x4 arch/arm/cpu/armv7/built-in.o
                0x00008508                v7_outer_cache_flush_all
 .text.flush_dcache_all
                0x0000850c       0x10 arch/arm/cpu/armv7/built-in.o
                0x0000850c                flush_dcache_all
 .text.v7_outer_cache_inval_all
                0x0000851c        0x4 arch/arm/cpu/armv7/built-in.o
                0x0000851c                v7_outer_cache_inval_all
 .text.invalidate_dcache_all
                0x00008520       0x10 arch/arm/cpu/armv7/built-in.o
                0x00008520                invalidate_dcache_all
 .text.arm_init_before_mmu
                0x00008530       0x28 arch/arm/cpu/armv7/built-in.o
                0x00008530                arm_init_before_mmu
 .text.v7_outer_cache_flush_range
                0x00008558        0x4 arch/arm/cpu/armv7/built-in.o
                0x00008558                v7_outer_cache_flush_range
 .text.flush_dcache_range
                0x0000855c       0x54 arch/arm/cpu/armv7/built-in.o
                0x0000855c                flush_dcache_range
 .text.mmu_page_table_flush
                0x000085b0       0x24 arch/arm/cpu/armv7/built-in.o
                0x000085b0                mmu_page_table_flush
 .text.v7_outer_cache_inval_range
                0x000085d4        0x4 arch/arm/cpu/armv7/built-in.o
                0x000085d4                v7_outer_cache_inval_range
 .text.invalidate_dcache_range
                0x000085d8       0x64 arch/arm/cpu/armv7/built-in.o
                0x000085d8                invalidate_dcache_range
 .text.cpu_cache_initialization
                0x0000863c        0x4 arch/arm/cpu/armv7/built-in.o
                0x0000863c                cpu_cache_initialization
 .text.cleanup_before_linux_select
                0x00008640       0x4c arch/arm/cpu/armv7/built-in.o
                0x00008640                cleanup_before_linux_select
 .text.cleanup_before_linux
                0x0000868c        0x8 arch/arm/cpu/armv7/built-in.o
                0x0000868c                cleanup_before_linux
 *fill*         0x00008694        0xc 
 .text          0x000086a0      0x528 arch/arm/lib/built-in.o
                0x000086a0                _main
                0x00008740                memset
                0x0000881c                memcpy
 .text.relocate_vectors
                0x00008bc8       0x70 arch/arm/lib/built-in.o
                0x00008bc8                relocate_vectors
                0x00008bd4                relocate_code
 .text.arch_fixup_fdt
                0x00008c38       0x38 arch/arm/lib/built-in.o
                0x00008c38                arch_fixup_fdt
 .text.arch_lmb_reserve
                0x00008c70       0x24 arch/arm/lib/built-in.o
                0x00008c70                arch_lmb_reserve
 .text.board_quiesce_devices
                0x00008c94        0x4 arch/arm/lib/built-in.o
                0x00008c94                board_quiesce_devices
 .text.boot_jump_linux
                0x00008c98       0xc8 arch/arm/lib/built-in.o
 .text.setup_board_tags
                0x00008d60        0x4 arch/arm/lib/built-in.o
                0x00008d60                setup_board_tags
 .text.boot_prep_linux
                0x00008d64      0x1a4 arch/arm/lib/built-in.o
 .text.do_bootm_linux
                0x00008f08       0x58 arch/arm/lib/built-in.o
                0x00008f08                do_bootm_linux
 .text.boot_prep_vxworks
                0x00008f60       0x50 arch/arm/lib/built-in.o
                0x00008f60                boot_prep_vxworks
 .text.boot_jump_vxworks
                0x00008fb0        0xc arch/arm/lib/built-in.o
                0x00008fb0                boot_jump_vxworks
 .text.bootz_setup
                0x00008fbc       0xa0 arch/arm/lib/built-in.o
                0x00008fbc                bootz_setup
 .text.arch_reserve_stacks
                0x0000905c       0x1c arch/arm/lib/built-in.o
                0x0000905c                arch_reserve_stacks
 .text.interrupt_init
                0x00009078       0x1c arch/arm/lib/built-in.o
                0x00009078                interrupt_init
 .text.enable_interrupts
                0x00009094        0x4 arch/arm/lib/built-in.o
                0x00009094                enable_interrupts
 .text.disable_interrupts
                0x00009098        0x8 arch/arm/lib/built-in.o
                0x00009098                disable_interrupts
 .text.bad_mode
                0x000090a0       0x10 arch/arm/lib/built-in.o
                0x000090a0                bad_mode
 .text.show_regs
                0x000090b0      0x174 arch/arm/lib/built-in.o
                0x000090b0                show_regs
 .text.do_undefined_instruction
                0x00009224       0x24 arch/arm/lib/built-in.o
                0x00009224                do_undefined_instruction
 .text.do_software_interrupt
                0x00009248       0x24 arch/arm/lib/built-in.o
                0x00009248                do_software_interrupt
 .text.do_prefetch_abort
                0x0000926c       0x24 arch/arm/lib/built-in.o
                0x0000926c                do_prefetch_abort
 .text.do_data_abort
                0x00009290       0x24 arch/arm/lib/built-in.o
                0x00009290                do_data_abort
 .text.do_not_used
                0x000092b4       0x24 arch/arm/lib/built-in.o
                0x000092b4                do_not_used
 .text.do_fiq   0x000092d8       0x24 arch/arm/lib/built-in.o
                0x000092d8                do_fiq
 .text.do_irq   0x000092fc       0x24 arch/arm/lib/built-in.o
                0x000092fc                do_irq
 .text.reset_misc
                0x00009320        0x4 arch/arm/lib/built-in.o
                0x00009320                reset_misc
 .text.do_reset
                0x00009324       0x30 arch/arm/lib/built-in.o
                0x00009324                do_reset
 .text.flush_cache
                0x00009354        0x8 arch/arm/lib/built-in.o
                0x00009354                flush_cache
 .text.check_cache_range
                0x0000935c       0x38 arch/arm/lib/built-in.o
                0x0000935c                check_cache_range
 .text.cp_delay
                0x00009394       0x30 arch/arm/lib/built-in.o
 .text.cache_disable
                0x000093c4       0x90 arch/arm/lib/built-in.o
 .text.arm_init_domains
                0x00009454        0x4 arch/arm/lib/built-in.o
                0x00009454                arm_init_domains
 .text.set_section_dcache
                0x00009458       0x1c arch/arm/lib/built-in.o
                0x00009458                set_section_dcache
 .text.mmu_set_region_dcache_behaviour
                0x00009474       0x64 arch/arm/lib/built-in.o
                0x00009474                mmu_set_region_dcache_behaviour
 .text.dram_bank_mmu_setup
                0x000094d8       0x48 arch/arm/lib/built-in.o
                0x000094d8                dram_bank_mmu_setup
 .text.cache_enable
                0x00009520      0x178 arch/arm/lib/built-in.o
 .text.icache_enable
                0x00009698        0x8 arch/arm/lib/built-in.o
                0x00009698                icache_enable
 .text.icache_disable
                0x000096a0        0x8 arch/arm/lib/built-in.o
                0x000096a0                icache_disable
 .text.dcache_enable
                0x000096a8        0x8 arch/arm/lib/built-in.o
                0x000096a8                dcache_enable
 .text.dcache_disable
                0x000096b0        0x8 arch/arm/lib/built-in.o
                0x000096b0                dcache_disable
 .text.dcache_status
                0x000096b8       0x24 arch/arm/lib/built-in.o
                0x000096b8                dcache_status
 .text.arch_cpu_init
                0x000096dc       0x10 arch/arm/mach-bcm283x/built-in.o
                0x000096dc                arch_cpu_init
 .text.enable_caches
                0x000096ec        0x4 arch/arm/mach-bcm283x/built-in.o
                0x000096ec                enable_caches
 .text.efi_reset_system_init
                0x000096f0       0x14 arch/arm/mach-bcm283x/built-in.o
                0x000096f0                efi_reset_system_init
 .text.bcm2835_mbox_call_raw
                0x00009704      0x11c arch/arm/mach-bcm283x/built-in.o
                0x00009704                bcm2835_mbox_call_raw
 .text.bcm2835_mbox_call_prop
                0x00009820       0xe8 arch/arm/mach-bcm283x/built-in.o
                0x00009820                bcm2835_mbox_call_prop
 .text.phys_to_bus
                0x00009908        0x8 arch/arm/mach-bcm283x/built-in.o
                0x00009908                phys_to_bus
 .text.bus_to_phys
                0x00009910        0x8 arch/arm/mach-bcm283x/built-in.o
                0x00009910                bus_to_phys
 *fill*         0x00009918       0xe8 
 .text          0x00009a00        0xc board/raspberrypi/rpi/built-in.o
                0x00009a00                fw_dtb_pointer
                0x00009a04                save_boot_params
 .text.power_on_module
                0x00009a0c       0x88 board/raspberrypi/rpi/built-in.o
 .text.dram_init
                0x00009a94       0x80 board/raspberrypi/rpi/built-in.o
                0x00009a94                dram_init
 .text.board_get_usable_ram_top
                0x00009b14       0x28 board/raspberrypi/rpi/built-in.o
                0x00009b14                board_get_usable_ram_top
 .text.misc_init_r
                0x00009b3c      0x27c board/raspberrypi/rpi/built-in.o
                0x00009b3c                misc_init_r
 .text.board_init
                0x00009db8      0x1b8 board/raspberrypi/rpi/built-in.o
                0x00009db8                board_init
 .text.board_mmc_init
                0x00009f70       0x9c board/raspberrypi/rpi/built-in.o
                0x00009f70                board_mmc_init
 .text.ft_board_setup
                0x0000a00c       0x34 board/raspberrypi/rpi/built-in.o
                0x0000a00c                ft_board_setup
 .text.do_go_exec
                0x0000a040       0x10 cmd/built-in.o
                0x0000a040                do_go_exec
 .text.do_go    0x0000a050       0x6c cmd/built-in.o
 .text.do_bootm
                0x0000a0bc      0x108 cmd/built-in.o
                0x0000a0bc                do_bootm
 .text.do_bootd
                0x0000a1c4       0x20 cmd/built-in.o
                0x0000a1c4                do_bootd
 .text.image_info
                0x0000a1e4       0xcc cmd/built-in.o
 .text.do_iminfo
                0x0000a2b0       0x5c cmd/built-in.o
 .text.bootm_maybe_autostart
                0x0000a30c       0x78 cmd/built-in.o
                0x0000a30c                bootm_maybe_autostart
 .text.do_help  0x0000a384       0x44 cmd/built-in.o
 .text.do_version
                0x0000a3c8       0x38 cmd/built-in.o
 .text.source   0x0000a400       0xd4 cmd/built-in.o
                0x0000a400                source
 .text.do_source
                0x0000a4d4       0x44 cmd/built-in.o
 .text.print_num
                0x0000a518       0x14 cmd/built-in.o
 .text.do_bdinfo
                0x0000a52c      0x1b8 cmd/built-in.o
 .text.bootefi_open_dp
                0x0000a6e4       0x14 cmd/built-in.o
 .text.do_bootefi_exec
                0x0000a6f8      0x2a4 cmd/built-in.o
 .text.do_bootefi
                0x0000a99c       0x8c cmd/built-in.o
 .text.efi_set_bootdev
                0x0000aa28      0x154 cmd/built-in.o
                0x0000aa28                efi_set_bootdev
 .text.do_bootz
                0x0000ab7c       0xfc cmd/built-in.o
                0x0000ab7c                do_bootz
 .text.do_coninfo
                0x0000ac78       0xb0 cmd/built-in.o
 .text.do_echo  0x0000ad28       0xb4 cmd/built-in.o
 .text.load_elf_image_shdr
                0x0000addc       0x8c cmd/built-in.o
 .text.valid_elf_image
                0x0000ae68       0x4c cmd/built-in.o
                0x0000ae68                valid_elf_image
 .text.do_bootelf
                0x0000aeb4      0x1ac cmd/built-in.o
                0x0000aeb4                do_bootelf
 .text.do_bootvx
                0x0000b060      0x330 cmd/built-in.o
                0x0000b060                do_bootvx
 .text.do_exit  0x0000b390       0x48 cmd/built-in.o
 .text.do_ext4_size
                0x0000b3d8       0x18 cmd/built-in.o
                0x0000b3d8                do_ext4_size
 .text.do_ext4_load
                0x0000b3f0       0x18 cmd/built-in.o
                0x0000b3f0                do_ext4_load
 .text.do_ext4_ls
                0x0000b408       0x18 cmd/built-in.o
                0x0000b408                do_ext4_ls
 .text.do_ext2load
                0x0000b420       0x18 cmd/built-in.o
                0x0000b420                do_ext2load
 .text.do_ext2ls
                0x0000b438       0x18 cmd/built-in.o
 .text.do_fat_size
                0x0000b450       0x18 cmd/built-in.o
                0x0000b450                do_fat_size
 .text.do_fat_fsload
                0x0000b468       0x18 cmd/built-in.o
                0x0000b468                do_fat_fsload
 .text.do_fat_ls
                0x0000b480       0x18 cmd/built-in.o
 .text.do_fat_fsinfo
                0x0000b498       0x8c cmd/built-in.o
 .text.do_fat_fswrite
                0x0000b524      0x124 cmd/built-in.o
 .text.fdt_valid
                0x0000b648       0xbc cmd/built-in.o
 .text.is_printable_string
                0x0000b704       0x88 cmd/built-in.o
 .text.print_data
                0x0000b78c      0x170 cmd/built-in.o
 .text.set_working_fdt_addr
                0x0000b8fc       0x1c cmd/built-in.o
                0x0000b8fc                set_working_fdt_addr
 .text.do_fdt   0x0000b918      0xef4 cmd/built-in.o
 .text.do_size_wrapper
                0x0000c80c       0x18 cmd/built-in.o
 .text.do_load_wrapper
                0x0000c824       0x64 cmd/built-in.o
 .text.do_save_wrapper
                0x0000c888       0x18 cmd/built-in.o
 .text.do_ls_wrapper
                0x0000c8a0       0x18 cmd/built-in.o
 .text.do_fstype_wrapper
                0x0000c8b8        0x4 cmd/built-in.o
 .text.gpio_get_description
                0x0000c8bc       0xcc cmd/built-in.o
 .text.do_gpio  0x0000c988      0x360 cmd/built-in.o
 .text.evalexp  0x0000cce8       0x78 cmd/built-in.o
 .text.evalstr  0x0000cd60       0x64 cmd/built-in.o
 .text.binary_test
                0x0000cdc4      0x1c0 cmd/built-in.o
 .text.do_itest
                0x0000cf84       0x88 cmd/built-in.o
 .text.bin_data_init
                0x0000d00c       0x2c cmd/built-in.o
 .text.k_data_save
                0x0000d038       0x4c cmd/built-in.o
 .text.k_data_restore
                0x0000d084       0x4c cmd/built-in.o
 .text.getcxmodem
                0x0000d0d0       0x20 cmd/built-in.o
 .text.load_serial_ymodem
                0x0000d0f0       0xcc cmd/built-in.o
 .text.bin_data_char
                0x0000d1bc       0x2c cmd/built-in.o
 .text.chk1.constprop.1
                0x0000d1e8       0x30 cmd/built-in.o
 .text.s1_sendpacket.constprop.2
                0x0000d218       0x50 cmd/built-in.o
 .text.load_serial
                0x0000d268      0x1e4 cmd/built-in.o
 .text.do_load_serial
                0x0000d44c       0xdc cmd/built-in.o
 .text.do_load_serial_bin
                0x0000d528      0x79c cmd/built-in.o
 .text.do_mem_mw
                0x0000dcc4       0xc0 cmd/built-in.o
 .text.do_mem_loop
                0x0000dd84       0xec cmd/built-in.o
 .text.do_mem_md
                0x0000de70       0xe8 cmd/built-in.o
 .text.do_mem_cmp
                0x0000df58      0x154 cmd/built-in.o
 .text.do_mem_base
                0x0000e0ac       0x40 cmd/built-in.o
 .text.do_mem_cp
                0x0000e0ec       0xd4 cmd/built-in.o
 .text.do_mem_crc
                0x0000e1c0       0x48 cmd/built-in.o
 .text.mod_mem.isra.0
                0x0000e208      0x170 cmd/built-in.o
 .text.do_mem_mm
                0x0000e378        0x8 cmd/built-in.o
 .text.do_mem_nm
                0x0000e380        0x8 cmd/built-in.o
 .text.extract_range
                0x0000e388       0x54 cmd/built-in.o
 .text.do_mii   0x0000e3dc      0x90c cmd/built-in.o
 .text.do_sleep
                0x0000ece8       0xd0 cmd/built-in.o
 .text.do_mmcops
                0x0000edb8       0xb8 cmd/built-in.o
 .text.init_mmc_device
                0x0000ee70       0x50 cmd/built-in.o
 .text.do_mmc_rescan
                0x0000eec0       0x24 cmd/built-in.o
 .text.do_mmc_hwpartition
                0x0000eee4      0x510 cmd/built-in.o
 .text.do_mmc_list
                0x0000f3f4       0x14 cmd/built-in.o
 .text.do_mmc_dev
                0x0000f408      0x134 cmd/built-in.o
 .text.do_mmc_part
                0x0000f53c       0x60 cmd/built-in.o
 .text.do_mmc_erase
                0x0000f59c       0xec cmd/built-in.o
 .text.do_mmc_write
                0x0000f688      0x104 cmd/built-in.o
 .text.do_mmc_read
                0x0000f78c       0xf0 cmd/built-in.o
 .text.do_mmcinfo
                0x0000f87c      0x370 cmd/built-in.o
 .text.do_mmc_setdsr
                0x0000fbec       0xa8 cmd/built-in.o
 .text.netboot_common
                0x0000fc94      0x288 cmd/built-in.o
 .text.do_bootp
                0x0000ff1c        0xc cmd/built-in.o
 .text.do_dhcp  0x0000ff28        0xc cmd/built-in.o
 .text.do_nfs   0x0000ff34        0xc cmd/built-in.o
 .text.do_tftpb
                0x0000ff40       0x40 cmd/built-in.o
                0x0000ff40                do_tftpb
 .text.do_ping  0x0000ff80       0x78 cmd/built-in.o
 .text.do_part_list
                0x0000fff8      0x17c cmd/built-in.o
 .text.do_part_start
                0x00010174       0xc0 cmd/built-in.o
 .text.do_part_size
                0x00010234       0xc0 cmd/built-in.o
 .text.do_part  0x000102f4      0x118 cmd/built-in.o
 .text.eol_or_eof
                0x0001040c       0x24 cmd/built-in.o
 .text.do_pxe   0x00010430       0x7c cmd/built-in.o
 .text.label_print
                0x000104ac       0x1c cmd/built-in.o
 .text.do_get_tftp
                0x000104c8       0x44 cmd/built-in.o
 .text.from_env
                0x0001050c       0x2c cmd/built-in.o
 .text.get_string
                0x00010538       0xd0 cmd/built-in.o
 .text.label_destroy
                0x00010608       0x74 cmd/built-in.o
 .text.destroy_pxe_menu
                0x0001067c       0x5c cmd/built-in.o
 .text.get_token
                0x000106d8      0x11c cmd/built-in.o
 .text.parse_sliteral
                0x000107f4       0x54 cmd/built-in.o
 .text.parse_integer
                0x00010848       0x70 cmd/built-in.o
 .text.do_get_any
                0x000108b8       0x44 cmd/built-in.o
 .text.do_get_fat
                0x000108fc       0x3c cmd/built-in.o
 .text.do_get_ext2
                0x00010938       0x3c cmd/built-in.o
 .text.format_mac_pxe.constprop.6
                0x00010974       0x74 cmd/built-in.o
 .text.get_relfile
                0x000109e8      0x138 cmd/built-in.o
 .text.get_pxe_file
                0x00010b20       0x58 cmd/built-in.o
 .text.handle_include
                0x00010b78       0xa4 cmd/built-in.o
 .text.parse_pxefile_top
                0x00010c1c      0x458 cmd/built-in.o
 .text.parse_pxefile
                0x00011074       0x70 cmd/built-in.o
 .text.get_pxelinux_path
                0x000110e4       0x7c cmd/built-in.o
 .text.do_pxe_get
                0x00011160      0x160 cmd/built-in.o
 .text.get_relfile_envaddr
                0x000112c0       0x50 cmd/built-in.o
 .text.label_boot
                0x00011310      0x5ac cmd/built-in.o
 .text.handle_pxe_menu
                0x000118bc      0x15c cmd/built-in.o
 .text.do_pxe_boot
                0x00011a18       0xe0 cmd/built-in.o
 .text.do_sysboot
                0x00011af8      0x1e0 cmd/built-in.o
 .text.substitute
                0x00011cd8       0xf0 cmd/built-in.o
 .text.get_arg  0x00011dc8       0x58 cmd/built-in.o
 .text.regex_sub
                0x00011e20      0x454 cmd/built-in.o
 .text.do_setexpr
                0x00012274      0x180 cmd/built-in.o
 .text.do_false
                0x000123f4        0x8 cmd/built-in.o
 .text.do_true  0x000123fc        0x8 cmd/built-in.o
 .text.do_test  0x00012404      0x32c cmd/built-in.o
 .text.usb_get_class_desc
                0x00012730       0xbc cmd/built-in.o
 .text.usb_find_device
                0x000127ec       0x3c cmd/built-in.o
 .text.usb_show_tree_graph
                0x00012828      0x238 cmd/built-in.o
 .text.usb_display_class_sub
                0x00012a60      0x170 cmd/built-in.o
 .text.usb_display_string
                0x00012bd0       0x44 cmd/built-in.o
 .text.usb_display_config
                0x00012c14      0x228 cmd/built-in.o
 .text.do_usbboot
                0x00012e3c        0xc cmd/built-in.o
 .text.usb_display_desc.part.0
                0x00012e48      0x12c cmd/built-in.o
 .text.do_usb_start
                0x00012f74       0x3c cmd/built-in.o
 .text.usb_show_tree
                0x00012fb0       0x54 cmd/built-in.o
                0x00012fb0                usb_show_tree
 .text.do_usb   0x00013004      0x790 cmd/built-in.o
 .text.common_diskboot
                0x00013794      0x234 cmd/built-in.o
                0x00013794                common_diskboot
 .text.do_imgextract
                0x000139c8      0x280 cmd/built-in.o
 .text.do_env_delete
                0x00013c48       0x9c cmd/built-in.o
 .text.do_env_exists
                0x00013ce4       0x64 cmd/built-in.o
 .text.do_env_save
                0x00013d48       0x2c cmd/built-in.o
 .text.do_env   0x00013d74       0x68 cmd/built-in.o
 .text.env_print
                0x00013ddc       0xc4 cmd/built-in.o
 .text.do_env_print
                0x00013ea0       0xc0 cmd/built-in.o
 .text.do_env_import
                0x00013f60      0x288 cmd/built-in.o
 .text.do_env_default
                0x000141e8       0x9c cmd/built-in.o
 .text._do_env_set.isra.0
                0x00014284      0x1ac cmd/built-in.o
 .text.do_env_set
                0x00014430       0x20 cmd/built-in.o
 .text.get_env_id
                0x00014450       0x10 cmd/built-in.o
                0x00014450                get_env_id
 .text.setenv   0x00014460       0x60 cmd/built-in.o
                0x00014460                setenv
 .text.setenv_ulong
                0x000144c0       0x20 cmd/built-in.o
                0x000144c0                setenv_ulong
 .text.setenv_hex
                0x000144e0       0x34 cmd/built-in.o
                0x000144e0                setenv_hex
 .text.do_env_export
                0x00014514      0x24c cmd/built-in.o
 .text.envmatch
                0x00014760       0x64 cmd/built-in.o
                0x00014760                envmatch
 .text.getenv_f
                0x000147c4       0xc4 cmd/built-in.o
                0x000147c4                getenv_f
 .text.getenv   0x00014888       0x78 cmd/built-in.o
                0x00014888                getenv
 .text.getenv_hex
                0x00014900       0x3c cmd/built-in.o
                0x00014900                getenv_hex
 .text.getenv_ulong
                0x0001493c       0x30 cmd/built-in.o
                0x0001493c                getenv_ulong
 .text.do_env_edit.part.2
                0x0001496c       0xac cmd/built-in.o
 .text.do_env_edit
                0x00014a18       0x2c cmd/built-in.o
 .text.board_init_f_alloc_reserve
                0x00014a44       0x10 common/built-in.o
                0x00014a44                board_init_f_alloc_reserve
 .text.board_init_f_init_reserve
                0x00014a54       0x20 common/built-in.o
                0x00014a54                board_init_f_init_reserve
 .text.show_boot_progress
                0x00014a74        0x8 common/built-in.o
                0x00014a74                show_boot_progress
 .text.main_loop
                0x00014a7c       0x6c common/built-in.o
                0x00014a7c                main_loop
 .text.dummy    0x00014ae8        0x4 common/built-in.o
 .text.get_version
                0x00014aec        0x8 common/built-in.o
                0x00014aec                get_version
 .text.jumptable_init
                0x00014af4      0x1e0 common/built-in.o
                0x00014af4                jumptable_init
 .text.hash_command
                0x00014cd4       0xb0 common/built-in.o
                0x00014cd4                hash_command
 .text.b_reset  0x00014d84       0x1c common/built-in.o
 .text.static_get
                0x00014da0       0x1c common/built-in.o
 .text.file_peek
                0x00014dbc        0xc common/built-in.o
 .text.mapset   0x00014dc8       0x24 common/built-in.o
 .text.syntax_err
                0x00014dec        0xc common/built-in.o
 .text.free_pipe_list
                0x00014df8       0xf0 common/built-in.o
 .text.xmalloc  0x00014ee8       0x20 common/built-in.o
 .text.new_pipe
                0x00014f08       0x28 common/built-in.o
 .text.xrealloc
                0x00014f30       0x20 common/built-in.o
 .text.done_command
                0x00014f50       0x88 common/built-in.o
 .text.done_pipe
                0x00014fd8       0x48 common/built-in.o
 .text.done_word
                0x00015020      0x2d4 common/built-in.o
 .text.do_showvar
                0x000152f4      0x100 common/built-in.o
 .text.is_assignment
                0x000153f4       0x5c common/built-in.o
 .text.file_get
                0x00015450      0x1ec common/built-in.o
 .text.b_addchr
                0x0001563c       0x80 common/built-in.o
 .text.b_addqchr
                0x000156bc       0x50 common/built-in.o
 .text.static_peek
                0x0001570c        0xc common/built-in.o
 .text.get_local_var
                0x00015718       0x94 common/built-in.o
                0x00015718                get_local_var
 .text.set_local_var
                0x000157ac      0x1a8 common/built-in.o
                0x000157ac                set_local_var
 .text.insert_var_value_sub
                0x00015954      0x2bc common/built-in.o
 .text.parse_string_outer
                0x00015c10       0xe8 common/built-in.o
                0x00015c10                parse_string_outer
 .text.run_list_real
                0x00015cf8      0x7a8 common/built-in.o
 .text.parse_stream_outer
                0x000164a0      0x6b0 common/built-in.o
 .text.parse_file_outer
                0x00016b50       0x44 common/built-in.o
                0x00016b50                parse_file_outer
 .text.u_boot_hush_start
                0x00016b94       0x54 common/built-in.o
                0x00016b94                u_boot_hush_start
 .text.bootdelay_process
                0x00016be8       0xbc common/built-in.o
                0x00016be8                bootdelay_process
 .text.autoboot_command
                0x00016ca4       0xf4 common/built-in.o
                0x00016ca4                autoboot_command
 .text.print_cpuinfo
                0x00016d98        0x8 common/built-in.o
 .text.setup_mon_len
                0x00016da0       0x20 common/built-in.o
 .text.reserve_round_4k
                0x00016dc0       0x18 common/built-in.o
 .text.reserve_mmu
                0x00016dd8       0x38 common/built-in.o
 .text.reserve_lcd
                0x00016e10        0xc common/built-in.o
 .text.reserve_uboot
                0x00016e1c       0x30 common/built-in.o
 .text.reserve_malloc
                0x00016e4c       0x18 common/built-in.o
 .text.reserve_global_data
                0x00016e64       0x1c common/built-in.o
 .text.initf_console_record
                0x00016e80        0x8 common/built-in.o
 .text.arch_cpu_init_dm
                0x00016e88        0x8 common/built-in.o
                0x00016e88                arch_cpu_init_dm
 .text.announce_dram_init
                0x00016e90       0x18 common/built-in.o
 .text.init_baud_rate
                0x00016ea8       0x2c common/built-in.o
 .text.mark_bootstage
                0x00016ed4       0x14 common/built-in.o
 .text.initf_dm
                0x00016ee8        0x8 common/built-in.o
 .text.setup_reloc
                0x00016ef0       0x3c common/built-in.o
 .text.reserve_board
                0x00016f2c       0x40 common/built-in.o
 .text.reserve_arch
                0x00016f6c        0x8 common/built-in.o
                0x00016f6c                reserve_arch
 .text.display_text_info
                0x00016f74        0x8 common/built-in.o
 .text.mach_cpu_init
                0x00016f7c        0x8 common/built-in.o
                0x00016f7c                mach_cpu_init
 .text.reserve_trace
                0x00016f84        0x8 common/built-in.o
 .text.setup_machine
                0x00016f8c        0x8 common/built-in.o
 .text.reserve_fdt
                0x00016f94        0x8 common/built-in.o
 .text.display_new_sp
                0x00016f9c        0x8 common/built-in.o
 .text.reloc_fdt
                0x00016fa4        0x8 common/built-in.o
 .text.coloured_LED_init
                0x00016fac        0x4 common/built-in.o
                0x00016fac                coloured_LED_init
 .text.red_led_on
                0x00016fb0        0x4 common/built-in.o
                0x00016fb0                red_led_on
 .text.board_add_ram_info
                0x00016fb4        0x4 common/built-in.o
                0x00016fb4                board_add_ram_info
 .text.show_dram_config
                0x00016fb8       0x38 common/built-in.o
 .text.dram_init_banksize
                0x00016ff0       0x20 common/built-in.o
                0x00016ff0                dram_init_banksize
 .text.setup_dram_config
                0x00017010       0x10 common/built-in.o
 .text.board_reserve_ram_top
                0x00017020        0x4 common/built-in.o
                0x00017020                board_reserve_ram_top
 .text.setup_dest_addr
                0x00017024       0x4c common/built-in.o
 .text.reserve_stacks
                0x00017070       0x1c common/built-in.o
 .text.board_init_f
                0x0001708c       0x28 common/built-in.o
                0x0001708c                board_init_f
 .text.bootstage_relocate
                0x000170b4        0x8 common/built-in.o
 .text.initr_reloc
                0x000170bc       0x18 common/built-in.o
 .text.power_init_board
                0x000170d4        0x8 common/built-in.o
                0x000170d4                power_init_board
 .text.initr_announce
                0x000170dc        0x8 common/built-in.o
 .text.run_main_loop
                0x000170e4        0xc common/built-in.o
 .text.initr_net
                0x000170f0       0x1c common/built-in.o
 .text.initr_ethaddr
                0x0001710c       0x20 common/built-in.o
 .text.initr_enable_interrupts
                0x0001712c       0x10 common/built-in.o
 .text.initr_jumptable
                0x0001713c       0x10 common/built-in.o
 .text.initr_env
                0x0001714c       0x64 common/built-in.o
 .text.initr_mmc
                0x000171b0       0x20 common/built-in.o
 .text.initr_serial
                0x000171d0       0x10 common/built-in.o
 .text.initr_bootstage
                0x000171e0       0x14 common/built-in.o
 .text.initr_dm
                0x000171f4       0x14 common/built-in.o
 .text.initr_malloc
                0x00017208       0x24 common/built-in.o
 .text.initr_reloc_global_data
                0x0001722c       0x48 common/built-in.o
 .text.initr_caches
                0x00017274       0x10 common/built-in.o
 .text.initr_console_record
                0x00017284        0x8 common/built-in.o
 .text.initr_trace
                0x0001728c        0x8 common/built-in.o
 .text.initr_barrier
                0x00017294        0x8 common/built-in.o
 .text.cpu_secondary_init_r
                0x0001729c        0x4 common/built-in.o
                0x0001729c                cpu_secondary_init_r
 .text.initr_secondary_cpu
                0x000172a0       0x10 common/built-in.o
 .text.board_init_r
                0x000172b0       0x14 common/built-in.o
                0x000172b0                board_init_r
 .text.bootm_find_images
                0x000172c4       0xa8 common/built-in.o
                0x000172c4                bootm_find_images
 .text.bootm_decomp_image
                0x0001736c      0x140 common/built-in.o
                0x0001736c                bootm_decomp_image
 .text.bootm_disable_interrupts
                0x000174ac       0x18 common/built-in.o
                0x000174ac                bootm_disable_interrupts
 .text.do_bootm_states
                0x000174c4      0x720 common/built-in.o
                0x000174c4                do_bootm_states
 .text.copy_args
                0x00017be4       0x50 common/built-in.o
 .text.do_bootm_rtems
                0x00017c34       0x40 common/built-in.o
 .text.do_bootm_plan9
                0x00017c74       0xa4 common/built-in.o
 .text.do_bootm_standalone
                0x00017d18       0x64 common/built-in.o
 .text.do_bootm_qnxelf
                0x00017d7c       0x5c common/built-in.o
 .text.do_bootm_netbsd
                0x00017dd8       0xf8 common/built-in.o
 .text.do_bootvx_fdt
                0x00017ed0      0x118 common/built-in.o
                0x00017ed0                do_bootvx_fdt
 .text.do_bootm_vxworks
                0x00017fe8       0x24 common/built-in.o
 .text.arch_preboot_os
                0x0001800c        0x4 common/built-in.o
                0x0001800c                arch_preboot_os
 .text.boot_selected_os
                0x00018010       0x58 common/built-in.o
                0x00018010                boot_selected_os
 .text.bootm_os_get_boot_func
                0x00018068       0x10 common/built-in.o
                0x00018068                bootm_os_get_boot_func
 .text.regex_callback
                0x00018078      0x12c common/built-in.o
 .text.env_attr_walk
                0x000181a4      0x120 common/built-in.o
                0x000181a4                env_attr_walk
 .text.env_attr_lookup
                0x000182c4       0x7c common/built-in.o
                0x000182c4                env_attr_lookup
 .text.clear_callback
                0x00018340       0x10 common/built-in.o
 .text.find_env_callback
                0x00018350       0x60 common/built-in.o
 .text.on_callbacks
                0x000183b0       0x50 common/built-in.o
 .text.set_callback
                0x00018400       0x98 common/built-in.o
 .text.env_callback_init
                0x00018498       0xc4 common/built-in.o
                0x00018498                env_callback_init
 .text.skip_num
                0x0001855c       0x94 common/built-in.o
 .text.clear_flags
                0x000185f0       0x10 common/built-in.o
 .text.on_flags
                0x00018600       0x50 common/built-in.o
 .text.env_flags_parse_vartype
                0x00018650       0x50 common/built-in.o
                0x00018650                env_flags_parse_vartype
 .text.env_flags_parse_varaccess
                0x000186a0       0x50 common/built-in.o
                0x000186a0                env_flags_parse_varaccess
 .text.set_flags
                0x000186f0       0xb0 common/built-in.o
 .text.eth_validate_ethaddr_str
                0x000187a0       0x94 common/built-in.o
                0x000187a0                eth_validate_ethaddr_str
 .text.env_flags_init
                0x00018834       0xd8 common/built-in.o
                0x00018834                env_flags_init
 .text.env_flags_validate
                0x0001890c      0x288 common/built-in.o
                0x0001890c                env_flags_validate
 .text.env_init
                0x00018b94       0x1c common/built-in.o
                0x00018b94                env_init
 .text.saveenv  0x00018bb0       0xf8 common/built-in.o
                0x00018bb0                saveenv
 .text.env_relocate_spec
                0x00018ca8       0xd8 common/built-in.o
                0x00018ca8                env_relocate_spec
 .text.of_bus_default_map
                0x00018d80       0xdc common/built-in.o
 .text.of_bus_default_count_cells
                0x00018e5c       0x58 common/built-in.o
                0x00018e5c                of_bus_default_count_cells
 .text.of_bus_default_translate
                0x00018eb4       0xa8 common/built-in.o
 .text.fdt_find_and_setprop
                0x00018f5c       0x70 common/built-in.o
                0x00018f5c                fdt_find_and_setprop
 .text.fdt_find_or_add_subnode
                0x00018fcc       0x60 common/built-in.o
                0x00018fcc                fdt_find_or_add_subnode
 .text.fdt_root
                0x0001902c       0x90 common/built-in.o
                0x0001902c                fdt_root
 .text.fdt_initrd
                0x000190bc      0x1c8 common/built-in.o
                0x000190bc                fdt_initrd
 .text.fdt_chosen
                0x00019284       0xa8 common/built-in.o
                0x00019284                fdt_chosen
 .text.do_fixup_by_path
                0x0001932c       0x54 common/built-in.o
                0x0001932c                do_fixup_by_path
 .text.fdt_fixup_memory_banks
                0x00019380      0x1b0 common/built-in.o
                0x00019380                fdt_fixup_memory_banks
 .text.fdt_fixup_memory
                0x00019530       0x20 common/built-in.o
                0x00019530                fdt_fixup_memory
 .text.fdt_fixup_ethernet
                0x00019550      0x1a8 common/built-in.o
                0x00019550                fdt_fixup_ethernet
 .text.fdt_shrink_to_minimum
                0x000196f8       0xd0 common/built-in.o
                0x000196f8                fdt_shrink_to_minimum
 .text.fdt_translate_address
                0x000197c8      0x298 common/built-in.o
                0x000197c8                fdt_translate_address
 .text.fdt_setup_simplefb_node
                0x00019a60      0x208 common/built-in.o
                0x00019a60                fdt_setup_simplefb_node
 .text.miiphy_get_dev_by_name
                0x00019c68       0x58 common/built-in.o
                0x00019c68                miiphy_get_dev_by_name
 .text.miiphy_init
                0x00019cc0       0x24 common/built-in.o
                0x00019cc0                miiphy_init
 .text.miiphy_set_current_dev
                0x00019ce4       0x40 common/built-in.o
                0x00019ce4                miiphy_set_current_dev
 .text.miiphy_get_active_dev
                0x00019d24       0x54 common/built-in.o
 .text.miiphy_get_current_dev
                0x00019d78       0x18 common/built-in.o
                0x00019d78                miiphy_get_current_dev
 .text.miiphy_read
                0x00019d90       0x4c common/built-in.o
                0x00019d90                miiphy_read
 .text.miiphy_write
                0x00019ddc       0x40 common/built-in.o
                0x00019ddc                miiphy_write
 .text.miiphy_listdev
                0x00019e1c       0x78 common/built-in.o
                0x00019e1c                miiphy_listdev
 .text.miiphy_info
                0x00019e94       0x88 common/built-in.o
                0x00019e94                miiphy_info
 .text.miiphy_speed
                0x00019f1c       0xc4 common/built-in.o
                0x00019f1c                miiphy_speed
 .text.miiphy_duplex
                0x00019fe0       0xbc common/built-in.o
                0x00019fe0                miiphy_duplex
 .text.miiphy_is_1000base_x
                0x0001a09c        0x8 common/built-in.o
                0x0001a09c                miiphy_is_1000base_x
 .text.usb_set_maxpacket_ep
                0x0001a0a4       0x78 common/built-in.o
 .text.usb_stop
                0x0001a11c       0x64 common/built-in.o
                0x0001a11c                usb_stop
 .text.usb_disable_asynch
                0x0001a180       0x20 common/built-in.o
                0x0001a180                usb_disable_asynch
 .text.usb_submit_int_msg
                0x0001a1a0        0x4 common/built-in.o
                0x0001a1a0                usb_submit_int_msg
 .text.usb_control_msg
                0x0001a1a4       0xbc common/built-in.o
                0x0001a1a4                usb_control_msg
 .text.usb_get_descriptor
                0x0001a260       0x58 common/built-in.o
 .text.get_descriptor_len
                0x0001a2b8       0x90 common/built-in.o
 .text.usb_get_string
                0x0001a348       0x74 common/built-in.o
 .text.usb_string_sub
                0x0001a3bc      0x104 common/built-in.o
 .text.usb_bulk_msg
                0x0001a4c0       0x70 common/built-in.o
                0x0001a4c0                usb_bulk_msg
 .text.usb_maxpacket
                0x0001a530       0x1c common/built-in.o
                0x0001a530                usb_maxpacket
 .text.usb_clear_halt
                0x0001a54c       0x90 common/built-in.o
                0x0001a54c                usb_clear_halt
 .text.usb_get_configuration_len
                0x0001a5dc       0x74 common/built-in.o
                0x0001a5dc                usb_get_configuration_len
 .text.usb_get_configuration_no
                0x0001a650       0x34 common/built-in.o
                0x0001a650                usb_get_configuration_no
 .text.usb_set_interface
                0x0001a684       0xb4 common/built-in.o
                0x0001a684                usb_set_interface
 .text.usb_set_protocol
                0x0001a738       0x4c common/built-in.o
                0x0001a738                usb_set_protocol
 .text.usb_set_idle
                0x0001a784       0x54 common/built-in.o
                0x0001a784                usb_set_idle
 .text.usb_string
                0x0001a7d8      0x100 common/built-in.o
                0x0001a7d8                usb_string
 .text.usb_get_dev_index
                0x0001a8d8       0x24 common/built-in.o
                0x0001a8d8                usb_get_dev_index
 .text.usb_alloc_new_device
                0x0001a8fc       0x9c common/built-in.o
                0x0001a8fc                usb_alloc_new_device
 .text.usb_free_device
                0x0001a998       0x48 common/built-in.o
                0x0001a998                usb_free_device
 .text.usb_alloc_device
                0x0001a9e0        0x8 common/built-in.o
                0x0001a9e0                usb_alloc_device
 .text.usb_select_config
                0x0001a9e8      0x464 common/built-in.o
                0x0001a9e8                usb_select_config
 .text.usb_setup_device
                0x0001ae4c      0x164 common/built-in.o
                0x0001ae4c                usb_setup_device
 .text.usb_new_device
                0x0001afb0       0x30 common/built-in.o
                0x0001afb0                usb_new_device
 .text.usb_init
                0x0001afe0      0x144 common/built-in.o
                0x0001afe0                usb_init
 .text.board_usb_init
                0x0001b124        0x8 common/built-in.o
                0x0001b124                board_usb_init
 .text.usb_device_has_child_on_port
                0x0001b12c       0x14 common/built-in.o
                0x0001b12c                usb_device_has_child_on_port
 .text.usb_find_usb2_hub_address_port
                0x0001b140       0x5c common/built-in.o
                0x0001b140                usb_find_usb2_hub_address_port
 .text.usb_set_port_feature
                0x0001b19c       0x4c common/built-in.o
 .text.usb_clear_port_feature
                0x0001b1e8       0x4c common/built-in.o
 .text.usb_get_hub_descriptor
                0x0001b234       0x4c common/built-in.o
 .text.usb_hub_reset_devices
                0x0001b280        0x4 common/built-in.o
                0x0001b280                usb_hub_reset_devices
 .text.usb_get_port_status
                0x0001b284       0x4c common/built-in.o
                0x0001b284                usb_get_port_status
 .text.usb_hub_reset
                0x0001b2d0       0x20 common/built-in.o
                0x0001b2d0                usb_hub_reset
 .text.legacy_hub_port_reset
                0x0001b2f0       0x9c common/built-in.o
                0x0001b2f0                legacy_hub_port_reset
 .text.usb_hub_port_connect_change
                0x0001b38c      0x150 common/built-in.o
                0x0001b38c                usb_hub_port_connect_change
 .text.usb_hub_configure
                0x0001b4dc      0x4c0 common/built-in.o
 .text.usb_hub_probe
                0x0001b99c       0x54 common/built-in.o
                0x0001b99c                usb_hub_probe
 .text.usb_stor_irq
                0x0001b9f0       0x1c common/built-in.o
 .text.usb_stor_BBB_reset
                0x0001ba0c       0xd8 common/built-in.o
 .text.usb_stor_CB_reset
                0x0001bae4       0xd8 common/built-in.o
 .text.usb_stor_BBB_clear_endpt_stall.isra.2
                0x0001bbbc       0x40 common/built-in.o
 .text.usb_stor_BBB_transport
                0x0001bbfc      0x264 common/built-in.o
 .text.usb_stor_CB_comdat
                0x0001be60      0x218 common/built-in.o
 .text.usb_stor_CBI_get_status.isra.4
                0x0001c078       0xc8 common/built-in.o
 .text.usb_stor_CB_transport
                0x0001c140      0x218 common/built-in.o
 .text.usb_request_sense.constprop.10
                0x0001c358       0x70 common/built-in.o
 .text.usb_stor_read
                0x0001c3c8      0x168 common/built-in.o
 .text.usb_stor_write
                0x0001c530      0x168 common/built-in.o
 .text.usb_stor_info
                0x0001c698       0x78 common/built-in.o
                0x0001c698                usb_stor_info
 .text.usb_storage_probe
                0x0001c710      0x210 common/built-in.o
                0x0001c710                usb_storage_probe
 .text.usb_stor_get_info
                0x0001c920      0x318 common/built-in.o
                0x0001c920                usb_stor_get_info
 .text.usb_stor_scan
                0x0001cc38      0x1ec common/built-in.o
                0x0001cc38                usb_stor_scan
 .text.iomux_doenv
                0x0001ce24      0x1ac common/built-in.o
                0x0001ce24                iomux_doenv
 .text.lcd_stub_puts
                0x0001cfd0        0x8 common/built-in.o
 .text.lcd_stub_putc
                0x0001cfd8        0x8 common/built-in.o
 .text.lcd_set_flush_dcache
                0x0001cfe0       0x18 common/built-in.o
                0x0001cfe0                lcd_set_flush_dcache
 .text.lcd_sync
                0x0001cff8       0x40 common/built-in.o
                0x0001cff8                lcd_sync
 .text.lcd_clear
                0x0001d038       0xd4 common/built-in.o
                0x0001d038                lcd_clear
 .text.drv_lcd_init
                0x0001d10c       0xc4 common/built-in.o
                0x0001d10c                drv_lcd_init
 .text.do_lcd_clear
                0x0001d1d0       0x10 common/built-in.o
 .text.lcd_getfgcolor
                0x0001d1e0       0x10 common/built-in.o
                0x0001d1e0                lcd_getfgcolor
 .text.lcd_getbgcolor
                0x0001d1f0       0x10 common/built-in.o
                0x0001d1f0                lcd_getbgcolor
 .text.lcd_get_pixel_width
                0x0001d200       0x10 common/built-in.o
                0x0001d200                lcd_get_pixel_width
 .text.lcd_get_pixel_height
                0x0001d210       0x10 common/built-in.o
                0x0001d210                lcd_get_pixel_height
 .text.console_setrow0
                0x0001d220       0x30 common/built-in.o
 .text.console_moverow0
                0x0001d250       0x3c common/built-in.o
 .text.lcd_putc_xy0
                0x0001d28c       0x84 common/built-in.o
 .text.lcd_set_col
                0x0001d310       0x10 common/built-in.o
                0x0001d310                lcd_set_col
 .text.lcd_set_row
                0x0001d320       0x10 common/built-in.o
                0x0001d320                lcd_set_row
 .text.lcd_position_cursor
                0x0001d330       0x44 common/built-in.o
                0x0001d330                lcd_position_cursor
 .text.do_lcd_setcursor
                0x0001d374       0x50 common/built-in.o
 .text.lcd_init_console_rot
                0x0001d3c4        0x4 common/built-in.o
                0x0001d3c4                lcd_init_console_rot
 .text.lcd_init_console
                0x0001d3c8       0x7c common/built-in.o
                0x0001d3c8                lcd_init_console
 .text.lcd_putc
                0x0001d444      0x2e8 common/built-in.o
                0x0001d444                lcd_putc
 .text.lcd_puts
                0x0001d72c       0x3c common/built-in.o
                0x0001d72c                lcd_puts
 .text.do_lcd_puts
                0x0001d768       0x24 common/built-in.o
 .text.lcd_dt_simplefb_configure_node
                0x0001d78c       0x4c common/built-in.o
 .text.lcd_dt_simplefb_add_node
                0x0001d7d8       0x98 common/built-in.o
                0x0001d7d8                lcd_dt_simplefb_add_node
 .text.menu_display_statusline
                0x0001d870        0x4 common/built-in.o
                0x0001d870                menu_display_statusline
 .text.menu_default_set
                0x0001d874       0x80 common/built-in.o
                0x0001d874                menu_default_set
 .text.menu_get_choice
                0x0001d8f4      0x1f8 common/built-in.o
                0x0001d8f4                menu_get_choice
 .text.menu_item_add
                0x0001daec       0xd0 common/built-in.o
                0x0001daec                menu_item_add
 .text.menu_create
                0x0001dbbc       0x90 common/built-in.o
                0x0001dbbc                menu_create
 .text.menu_destroy
                0x0001dc4c       0x6c common/built-in.o
                0x0001dc4c                menu_destroy
 .text.usb_kbd_translate.part.0
                0x0001dcb8      0x12c common/built-in.o
 .text.usb_kbd_irq_worker
                0x0001dde4      0x1a8 common/built-in.o
 .text.usb_kbd_testc
                0x0001df8c       0x94 common/built-in.o
 .text.usb_kbd_getc
                0x0001e020       0x78 common/built-in.o
 .text.usb_kbd_irq
                0x0001e098       0x24 common/built-in.o
 .text.drv_usb_kbd_init
                0x0001e0bc      0x224 common/built-in.o
                0x0001e0bc                drv_usb_kbd_init
 .text.usb_kbd_deregister
                0x0001e2e0       0x74 common/built-in.o
                0x0001e2e0                usb_kbd_deregister
 .text.env_get_char_spec
                0x0001e354        0xc common/built-in.o
                0x0001e354                env_get_char_spec
 .text.env_get_addr
                0x0001e360       0x20 common/built-in.o
                0x0001e360                env_get_addr
 .text.env_get_char_memory
                0x0001e380       0x10 common/built-in.o
                0x0001e380                env_get_char_memory
 .text.env_get_char
                0x0001e390       0x30 common/built-in.o
                0x0001e390                env_get_char
 .text.getenv_yesno
                0x0001e3c0       0x3c common/built-in.o
                0x0001e3c0                getenv_yesno
 .text.getenv_default
                0x0001e3fc       0x30 common/built-in.o
                0x0001e3fc                getenv_default
 .text.set_default_env
                0x0001e42c       0xcc common/built-in.o
                0x0001e42c                set_default_env
 .text.set_default_vars
                0x0001e4f8       0x38 common/built-in.o
                0x0001e4f8                set_default_vars
 .text.env_import
                0x0001e530       0xdc common/built-in.o
                0x0001e530                env_import
 .text.env_export
                0x0001e60c       0xa0 common/built-in.o
                0x0001e60c                env_export
 .text.env_relocate
                0x0001e6ac       0x2c common/built-in.o
                0x0001e6ac                env_relocate
 .text.env_complete
                0x0001e6d8       0xf0 common/built-in.o
                0x0001e6d8                env_complete
 .text.console_tstc
                0x0001e7c8       0x88 common/built-in.o
 .text.console_putc
                0x0001e850       0x54 common/built-in.o
 .text.console_puts
                0x0001e8a4       0x54 common/built-in.o
 .text.on_console
                0x0001e8f8       0xbc common/built-in.o
 .text.serial_printf
                0x0001e9b4       0x48 common/built-in.o
                0x0001e9b4                serial_printf
 .text.console_getc.isra.0
                0x0001e9fc       0x28 common/built-in.o
 .text.putc     0x0001ea24       0x28 common/built-in.o
                0x0001ea24                putc
 .text.puts     0x0001ea4c       0x28 common/built-in.o
                0x0001ea4c                puts
 .text.tstc     0x0001ea74       0x24 common/built-in.o
                0x0001ea74                tstc
 .text.getc     0x0001ea98       0x44 common/built-in.o
                0x0001ea98                getc
 .text.ctrlc    0x0001eadc       0x58 common/built-in.o
                0x0001eadc                ctrlc
 .text.disable_ctrlc
                0x0001eb34       0x18 common/built-in.o
                0x0001eb34                disable_ctrlc
 .text.had_ctrlc
                0x0001eb4c       0x10 common/built-in.o
                0x0001eb4c                had_ctrlc
 .text.clear_ctrlc
                0x0001eb5c       0x14 common/built-in.o
                0x0001eb5c                clear_ctrlc
 .text.search_device
                0x0001eb70       0x28 common/built-in.o
                0x0001eb70                search_device
 .text.console_assign
                0x0001eb98       0xd4 common/built-in.o
                0x0001eb98                console_assign
 .text.console_init_f
                0x0001ec6c       0x10 common/built-in.o
                0x0001ec6c                console_init_f
 .text.stdio_print_current_devices
                0x0001ec7c       0xb0 common/built-in.o
                0x0001ec7c                stdio_print_current_devices
 .text.console_init_r
                0x0001ed2c      0x1b0 common/built-in.o
                0x0001ed2c                console_init_r
 .text.sbrk     0x0001eedc       0x6c common/built-in.o
                0x0001eedc                sbrk
 .text.mem_malloc_init
                0x0001ef48       0x34 common/built-in.o
                0x0001ef48                mem_malloc_init
 .text.malloc_trim
                0x0001ef7c       0xd0 common/built-in.o
                0x0001ef7c                malloc_trim
 .text.free     0x0001f04c      0x240 common/built-in.o
                0x0001f04c                free
 .text.malloc   0x0001f28c      0x610 common/built-in.o
                0x0001f28c                malloc
 .text.calloc   0x0001f89c      0x140 common/built-in.o
                0x0001f89c                calloc
 .text.realloc  0x0001f9dc      0x43c common/built-in.o
                0x0001f9dc                realloc
 .text.memalign
                0x0001fe18      0x170 common/built-in.o
                0x0001fe18                memalign
 .text.initf_malloc
                0x0001ff88       0x18 common/built-in.o
                0x0001ff88                initf_malloc
 .text.malloc_simple
                0x0001ffa0       0x30 common/built-in.o
                0x0001ffa0                malloc_simple
 .text.on_loadaddr
                0x0001ffd0       0x40 common/built-in.o
 .text.image_check_hcrc
                0x00020010       0x4c common/built-in.o
                0x00020010                image_check_hcrc
 .text.image_check_dcrc
                0x0002005c       0x38 common/built-in.o
                0x0002005c                image_check_dcrc
 .text.image_multi_count
                0x00020094       0x20 common/built-in.o
                0x00020094                image_multi_count
 .text.image_multi_getimg
                0x000200b4       0x80 common/built-in.o
                0x000200b4                image_multi_getimg
 .text.getenv_bootm_low
                0x00020134       0x28 common/built-in.o
                0x00020134                getenv_bootm_low
 .text.getenv_bootm_size
                0x0002015c       0x68 common/built-in.o
                0x0002015c                getenv_bootm_size
 .text.getenv_bootm_mapsize
                0x000201c4       0x30 common/built-in.o
                0x000201c4                getenv_bootm_mapsize
 .text.memmove_wd
                0x000201f4        0xc common/built-in.o
                0x000201f4                memmove_wd
 .text.genimg_print_size
                0x00020200       0x30 common/built-in.o
                0x00020200                genimg_print_size
 .text.get_table_entry
                0x00020230       0x24 common/built-in.o
                0x00020230                get_table_entry
 .text.get_table_entry_name
                0x00020254       0x20 common/built-in.o
                0x00020254                get_table_entry_name
 .text.genimg_get_os_name
                0x00020274       0x18 common/built-in.o
                0x00020274                genimg_get_os_name
 .text.genimg_get_arch_name
                0x0002028c       0x18 common/built-in.o
                0x0002028c                genimg_get_arch_name
 .text.genimg_get_type_name
                0x000202a4       0x18 common/built-in.o
                0x000202a4                genimg_get_type_name
 .text.genimg_get_comp_name
                0x000202bc       0x18 common/built-in.o
                0x000202bc                genimg_get_comp_name
 .text.image_print_contents
                0x000202d4      0x1b0 common/built-in.o
                0x000202d4                image_print_contents
 .text.genimg_get_kernel_addr_fit
                0x00020484       0x24 common/built-in.o
                0x00020484                genimg_get_kernel_addr_fit
 .text.genimg_get_kernel_addr
                0x000204a8       0x24 common/built-in.o
                0x000204a8                genimg_get_kernel_addr
 .text.genimg_get_format
                0x000204cc       0x34 common/built-in.o
                0x000204cc                genimg_get_format
 .text.genimg_get_image
                0x00020500        0x4 common/built-in.o
                0x00020500                genimg_get_image
 .text.genimg_has_config
                0x00020504        0x8 common/built-in.o
                0x00020504                genimg_has_config
 .text.boot_get_ramdisk
                0x0002050c      0x270 common/built-in.o
                0x0002050c                boot_get_ramdisk
 .text.boot_ramdisk_high
                0x0002077c      0x130 common/built-in.o
                0x0002077c                boot_ramdisk_high
 .text.boot_get_setup
                0x000208ac        0x8 common/built-in.o
                0x000208ac                boot_get_setup
 .text.image_setup_linux
                0x000208b4       0x88 common/built-in.o
                0x000208b4                image_setup_linux
 .text.fdt_error
                0x0002093c       0x2c common/built-in.o
 .text.boot_fdt_add_mem_rsv_regions
                0x00020968       0x8c common/built-in.o
                0x00020968                boot_fdt_add_mem_rsv_regions
 .text.boot_relocate_fdt
                0x000209f4      0x194 common/built-in.o
                0x000209f4                boot_relocate_fdt
 .text.boot_get_fdt
                0x00020b88      0x28c common/built-in.o
                0x00020b88                boot_get_fdt
 .text.ft_verify_fdt
                0x00020e14        0x8 common/built-in.o
                0x00020e14                ft_verify_fdt
 .text.image_setup_libfdt
                0x00020e1c      0x13c common/built-in.o
                0x00020e1c                image_setup_libfdt
 .text.get_effective_memsize
                0x00020f58        0x8 common/built-in.o
                0x00020f58                get_effective_memsize
 .text.nulldev_putc
                0x00020f60        0x4 common/built-in.o
 .text.nulldev_puts
                0x00020f64        0x4 common/built-in.o
 .text.nulldev_input
                0x00020f68        0x8 common/built-in.o
 .text.stdio_serial_tstc
                0x00020f70        0x4 common/built-in.o
 .text.stdio_serial_getc
                0x00020f74        0x4 common/built-in.o
 .text.stdio_serial_puts
                0x00020f78        0x8 common/built-in.o
 .text.stdio_serial_putc
                0x00020f80        0x8 common/built-in.o
 .text.stdio_get_list
                0x00020f88        0xc common/built-in.o
                0x00020f88                stdio_get_list
 .text.stdio_get_by_name
                0x00020f94       0x4c common/built-in.o
                0x00020f94                stdio_get_by_name
 .text.stdio_clone
                0x00020fe0       0x38 common/built-in.o
                0x00020fe0                stdio_clone
 .text.stdio_register_dev
                0x00021018       0x50 common/built-in.o
                0x00021018                stdio_register_dev
 .text.stdio_register
                0x00021068        0x8 common/built-in.o
                0x00021068                stdio_register
 .text.stdio_deregister_dev
                0x00021070       0xf0 common/built-in.o
                0x00021070                stdio_deregister_dev
 .text.stdio_init_tables
                0x00021160       0x1c common/built-in.o
                0x00021160                stdio_init_tables
 .text.stdio_add_devices
                0x0002117c       0xd0 common/built-in.o
                0x0002117c                stdio_add_devices
 .text.cli_simple_process_macros
                0x0002124c      0x218 common/built-in.o
                0x0002124c                cli_simple_process_macros
 .text.run_command
                0x00021464       0x10 common/built-in.o
                0x00021464                run_command
 .text.run_command_list
                0x00021474       0x7c common/built-in.o
                0x00021474                run_command_list
 .text.do_run   0x000214f0       0x74 common/built-in.o
                0x000214f0                do_run
 .text.cli_process_fdt
                0x00021564       0x40 common/built-in.o
                0x00021564                cli_process_fdt
 .text.cli_secure_boot_cmd
                0x000215a4       0x78 common/built-in.o
                0x000215a4                cli_secure_boot_cmd
 .text.cli_loop
                0x0002161c        0xc common/built-in.o
                0x0002161c                cli_loop
 .text.cli_init
                0x00021628        0x4 common/built-in.o
                0x00021628                cli_init
 .text.delete_char.part.0
                0x0002162c       0xd4 common/built-in.o
 .text.cread_add_char
                0x00021700       0xe8 common/built-in.o
 .text.cli_readline_into_buffer
                0x000217e8      0xa1c common/built-in.o
                0x000217e8                cli_readline_into_buffer
 .text.cli_readline
                0x00022204       0x14 common/built-in.o
                0x00022204                cli_readline
 .text.find_cmd_tbl
                0x00022218       0xa0 common/built-in.o
                0x00022218                find_cmd_tbl
 .text.find_cmd
                0x000222b8       0x28 common/built-in.o
                0x000222b8                find_cmd
 .text.cmd_usage
                0x000222e0       0x5c common/built-in.o
                0x000222e0                cmd_usage
 .text._do_help
                0x0002233c      0x188 common/built-in.o
                0x0002233c                _do_help
 .text.var_complete
                0x000224c4       0x94 common/built-in.o
                0x000224c4                var_complete
 .text.cmd_auto_complete
                0x00022558      0x4cc common/built-in.o
                0x00022558                cmd_auto_complete
 .text.cmd_get_data_size
                0x00022a24       0x50 common/built-in.o
                0x00022a24                cmd_get_data_size
 .text.cmd_process
                0x00022a74       0xec common/built-in.o
                0x00022a74                cmd_process
 .text.cmd_process_error
                0x00022b60       0x30 common/built-in.o
                0x00022b60                cmd_process_error
 .text.hex1_bin
                0x00022b90       0x40 common/built-in.o
 .text.hex2_bin
                0x00022bd0       0x38 common/built-in.o
 .text.srec_decode
                0x00022c08      0x24c common/built-in.o
                0x00022c08                srec_decode
 .text.CYGACC_COMM_IF_GETC_TIMEOUT.isra.0
                0x00022e54       0x4c common/built-in.o
 .text.xyzModem_flush
                0x00022ea0       0x1c common/built-in.o
 .text.xyzModem_get_hdr
                0x00022ebc      0x220 common/built-in.o
 .text.xyzModem_stream_open
                0x000230dc      0x228 common/built-in.o
                0x000230dc                xyzModem_stream_open
 .text.xyzModem_stream_read
                0x00023304      0x24c common/built-in.o
                0x00023304                xyzModem_stream_read
 .text.xyzModem_stream_close
                0x00023550       0x54 common/built-in.o
                0x00023550                xyzModem_stream_close
 .text.xyzModem_stream_terminate
                0x000235a4       0x94 common/built-in.o
                0x000235a4                xyzModem_stream_terminate
 .text.xyzModem_error
                0x00023638       0x20 common/built-in.o
                0x00023638                xyzModem_error
 .text.blk_get_dev
                0x00023658       0x30 disk/built-in.o
                0x00023658                blk_get_dev
 .text.dev_print
                0x00023688      0x218 disk/built-in.o
                0x00023688                dev_print
 .text.part_init
                0x000238a0       0x54 disk/built-in.o
                0x000238a0                part_init
 .text.part_print
                0x000238f4      0x128 disk/built-in.o
                0x000238f4                part_print
 .text.part_get_info
                0x00023a1c       0x6c disk/built-in.o
                0x00023a1c                part_get_info
 .text.blk_get_device_by_str
                0x00023a88      0x154 disk/built-in.o
                0x00023a88                blk_get_device_by_str
 .text.blk_get_device_part_str
                0x00023bdc      0x3ec disk/built-in.o
                0x00023bdc                blk_get_device_part_str
 .text.part_set_generic_name
                0x00023fc8       0x4c disk/built-in.o
                0x00023fc8                part_set_generic_name
 .text.test_block_type
                0x00024014       0x84 disk/built-in.o
 .text.print_partition_extended
                0x00024098      0x270 disk/built-in.o
 .text.part_print_dos
                0x00024308       0x34 disk/built-in.o
                0x00024308                part_print_dos
 .text.part_test_dos
                0x0002433c       0x60 disk/built-in.o
 .text.part_get_info_extended
                0x0002439c      0x2a4 disk/built-in.o
 .text.part_get_info_dos
                0x00024640       0x24 disk/built-in.o
                0x00024640                part_get_info_dos
 .text.iso_dread
                0x00024664       0x34 disk/built-in.o
                0x00024664                iso_dread
 .text.part_get_info_iso_verb
                0x00024698      0x3c8 disk/built-in.o
                0x00024698                part_get_info_iso_verb
 .text.part_test_iso
                0x00024a60       0x20 disk/built-in.o
 .text.part_print_iso
                0x00024a80       0x9c disk/built-in.o
 .text.part_get_info_iso
                0x00024b1c        0x8 disk/built-in.o
 .text.print_efiname
                0x00024b24       0x88 disk/built-in.o
 .text.part_test_efi
                0x00024bac       0xd0 disk/built-in.o
 .text.validate_gpt_entries
                0x00024c7c       0x98 disk/built-in.o
 *fill*         0x00024d14        0x4 
 .text.validate_gpt_header
                0x00024d18      0x228 disk/built-in.o
 .text.is_gpt_valid
                0x00024f40      0x1c8 disk/built-in.o
 .text.is_pte_valid
                0x00025108       0x58 disk/built-in.o
 .text.part_print_efi
                0x00025160      0x284 disk/built-in.o
                0x00025160                part_print_efi
 .text.part_get_info_efi
                0x000253e4      0x1f0 disk/built-in.o
                0x000253e4                part_get_info_efi
 .text.device_bind_common.isra.0
                0x000255d4      0x348 drivers/built-in.o
 .text.alloc_priv
                0x0002591c       0x44 drivers/built-in.o
 .text.device_bind_with_driver_data
                0x00025960       0x24 drivers/built-in.o
                0x00025960                device_bind_with_driver_data
 .text.device_bind_by_name
                0x00025984       0x68 drivers/built-in.o
                0x00025984                device_bind_by_name
 .text.device_probe
                0x000259ec      0x21c drivers/built-in.o
                0x000259ec                device_probe
 .text.dev_get_platdata
                0x00025c08       0x30 drivers/built-in.o
                0x00025c08                dev_get_platdata
 .text.dev_get_uclass_platdata
                0x00025c38       0x30 drivers/built-in.o
                0x00025c38                dev_get_uclass_platdata
 .text.dev_get_priv
                0x00025c68       0x30 drivers/built-in.o
                0x00025c68                dev_get_priv
 .text.dev_get_uclass_priv
                0x00025c98       0x30 drivers/built-in.o
                0x00025c98                dev_get_uclass_priv
 .text.dev_get_addr_index
                0x00025cc8       0xac drivers/built-in.o
                0x00025cc8                dev_get_addr_index
 .text.dev_get_addr
                0x00025d74        0x8 drivers/built-in.o
                0x00025d74                dev_get_addr
 .text.lists_driver_lookup_name
                0x00025d7c       0x48 drivers/built-in.o
                0x00025d7c                lists_driver_lookup_name
 .text.lists_uclass_lookup
                0x00025dc4       0x38 drivers/built-in.o
                0x00025dc4                lists_uclass_lookup
 .text.lists_bind_drivers
                0x00025dfc       0x8c drivers/built-in.o
                0x00025dfc                lists_bind_drivers
 .text.lists_bind_fdt
                0x00025e88      0x190 drivers/built-in.o
                0x00025e88                lists_bind_fdt
 .text.dm_root  0x00026018       0x2c drivers/built-in.o
                0x00026018                dm_root
 .text.dm_get_translation_offset
                0x00026044       0x14 drivers/built-in.o
                0x00026044                dm_get_translation_offset
 .text.dm_init  0x00026058       0x60 drivers/built-in.o
                0x00026058                dm_init
 .text.dm_scan_platdata
                0x000260b8       0x2c drivers/built-in.o
                0x000260b8                dm_scan_platdata
 .text.dm_scan_fdt_node
                0x000260e4       0xcc drivers/built-in.o
                0x000260e4                dm_scan_fdt_node
 .text.dm_scan_fdt_dev
                0x000261b0       0x28 drivers/built-in.o
                0x000261b0                dm_scan_fdt_dev
 .text.dm_scan_fdt
                0x000261d8       0x18 drivers/built-in.o
                0x000261d8                dm_scan_fdt
 .text.dm_scan_other
                0x000261f0        0x8 drivers/built-in.o
                0x000261f0                dm_scan_other
 .text.dm_init_and_scan
                0x000261f8       0x44 drivers/built-in.o
                0x000261f8                dm_init_and_scan
 .text.uclass_find
                0x0002623c       0x4c drivers/built-in.o
                0x0002623c                uclass_find
 .text.uclass_get
                0x00026288      0x118 drivers/built-in.o
                0x00026288                uclass_get
 .text.uclass_find_device
                0x000263a0       0x74 drivers/built-in.o
                0x000263a0                uclass_find_device
 .text.uclass_find_first_device
                0x00026414       0x3c drivers/built-in.o
                0x00026414                uclass_find_first_device
 .text.uclass_find_next_device
                0x00026450       0x2c drivers/built-in.o
                0x00026450                uclass_find_next_device
 .text.uclass_find_device_by_seq
                0x0002647c       0x7c drivers/built-in.o
                0x0002647c                uclass_find_device_by_seq
 .text.uclass_find_device_by_of_offset
                0x000264f8       0x68 drivers/built-in.o
                0x000264f8                uclass_find_device_by_of_offset
 .text.uclass_get_device_by_driver
                0x00026560       0x6c drivers/built-in.o
                0x00026560                uclass_get_device_by_driver
 .text.uclass_get_device_tail
                0x000265cc       0x30 drivers/built-in.o
                0x000265cc                uclass_get_device_tail
 .text.uclass_get_device
                0x000265fc       0x30 drivers/built-in.o
                0x000265fc                uclass_get_device
 .text.uclass_get_device_by_seq
                0x0002662c       0x54 drivers/built-in.o
                0x0002662c                uclass_get_device_by_seq
 .text.uclass_get_device_by_of_offset
                0x00026680       0x30 drivers/built-in.o
                0x00026680                uclass_get_device_by_of_offset
 .text.uclass_first_device
                0x000266b0       0x38 drivers/built-in.o
                0x000266b0                uclass_first_device
 .text.uclass_next_device
                0x000266e8       0x40 drivers/built-in.o
                0x000266e8                uclass_next_device
 .text.uclass_bind_device
                0x00026728       0x7c drivers/built-in.o
                0x00026728                uclass_bind_device
 .text.uclass_unbind_device
                0x000267a4       0x4c drivers/built-in.o
                0x000267a4                uclass_unbind_device
 .text.uclass_resolve_seq
                0x000267f0       0xb4 drivers/built-in.o
                0x000267f0                uclass_resolve_seq
 .text.uclass_pre_probe_device
                0x000268a4       0x64 drivers/built-in.o
                0x000268a4                uclass_pre_probe_device
 .text.uclass_post_probe_device
                0x00026908       0x20 drivers/built-in.o
                0x00026908                uclass_post_probe_device
 .text.uclass_pre_remove_device
                0x00026928       0x20 drivers/built-in.o
                0x00026928                uclass_pre_remove_device
 .text.dm_warn  0x00026948       0x28 drivers/built-in.o
                0x00026948                dm_warn
 .text.device_free
                0x00026970       0x90 drivers/built-in.o
                0x00026970                device_free
 .text.device_remove
                0x00026a00      0x128 drivers/built-in.o
                0x00026a00                device_remove
 .text.simple_bus_post_bind
                0x00026b28       0x64 drivers/built-in.o
 .text.show_devices
                0x00026b8c      0x100 drivers/built-in.o
 .text.dm_dump_all
                0x00026c8c       0x3c drivers/built-in.o
                0x00026c8c                dm_dump_all
 .text.dm_dump_uclass
                0x00026cc8       0xec drivers/built-in.o
                0x00026cc8                dm_dump_uclass
 .text.get_desc
                0x00026db4       0x6c drivers/built-in.o
 .text.blk_driver_lookup_type
                0x00026e20       0x38 drivers/built-in.o
                0x00026e20                blk_driver_lookup_type
 .text.blk_get_devnum_by_type
                0x00026e58       0x3c drivers/built-in.o
                0x00026e58                blk_get_devnum_by_type
 .text.blk_dselect_hwpart
                0x00026e94       0x48 drivers/built-in.o
                0x00026e94                blk_dselect_hwpart
 .text.blk_get_devnum_by_typename
                0x00026edc       0x68 drivers/built-in.o
                0x00026edc                blk_get_devnum_by_typename
 .text.blk_select_hwpart_devnum
                0x00026f44       0x48 drivers/built-in.o
                0x00026f44                blk_select_hwpart_devnum
 .text.lcd_ctrl_init
                0x00026f8c      0x230 drivers/built-in.o
                0x00026f8c                lcd_ctrl_init
 .text.lcd_enable
                0x000271bc        0x4 drivers/built-in.o
                0x000271bc                lcd_enable
 .text.lcd_get_size
                0x000271c0       0x24 drivers/built-in.o
                0x000271c0                lcd_get_size
 .text.gpio_to_device
                0x000271e4       0x80 drivers/gpio/built-in.o
 .text.check_reserved
                0x00027264       0x74 drivers/gpio/built-in.o
 .text.gpio_renumber
                0x000272d8       0x84 drivers/gpio/built-in.o
 .text.gpio_pre_remove
                0x0002735c       0x50 drivers/gpio/built-in.o
 .text.gpio_post_probe
                0x000273ac       0x38 drivers/gpio/built-in.o
 .text.dm_gpio_lookup_name
                0x000273e4      0x108 drivers/gpio/built-in.o
                0x000273e4                dm_gpio_lookup_name
 .text.gpio_lookup_name
                0x000274ec       0x70 drivers/gpio/built-in.o
                0x000274ec                gpio_lookup_name
 .text.dm_gpio_request
                0x0002755c       0x98 drivers/gpio/built-in.o
                0x0002755c                dm_gpio_request
 .text.gpio_request
                0x000275f4       0x2c drivers/gpio/built-in.o
                0x000275f4                gpio_request
 .text._dm_gpio_free
                0x00027620       0x74 drivers/gpio/built-in.o
                0x00027620                _dm_gpio_free
 .text.gpio_free
                0x00027694       0x28 drivers/gpio/built-in.o
                0x00027694                gpio_free
 .text.gpio_direction_input
                0x000276bc       0x4c drivers/gpio/built-in.o
                0x000276bc                gpio_direction_input
 .text.gpio_direction_output
                0x00027708       0x54 drivers/gpio/built-in.o
                0x00027708                gpio_direction_output
 .text.dm_gpio_get_value
                0x0002775c       0x48 drivers/gpio/built-in.o
                0x0002775c                dm_gpio_get_value
 .text.dm_gpio_set_value
                0x000277a4       0x54 drivers/gpio/built-in.o
                0x000277a4                dm_gpio_set_value
 .text.gpio_get_value
                0x000277f8       0x24 drivers/gpio/built-in.o
                0x000277f8                gpio_get_value
 .text.gpio_set_value
                0x0002781c       0x2c drivers/gpio/built-in.o
                0x0002781c                gpio_set_value
 .text.gpio_get_bank_info
                0x00027848       0x1c drivers/gpio/built-in.o
                0x00027848                gpio_get_bank_info
 .text.get_function
                0x00027864       0xac drivers/gpio/built-in.o
                0x00027864                get_function
 .text.gpio_get_function
                0x00027910        0xc drivers/gpio/built-in.o
                0x00027910                gpio_get_function
 .text.gpio_get_raw_function
                0x0002791c        0xc drivers/gpio/built-in.o
                0x0002791c                gpio_get_raw_function
 .text.gpio_get_status
                0x00027928      0x114 drivers/gpio/built-in.o
                0x00027928                gpio_get_status
 .text.bcm2835_gpio_set_value
                0x00027a3c       0x48 drivers/gpio/built-in.o
 .text.bcm2835_gpio_get_value
                0x00027a84       0x38 drivers/gpio/built-in.o
 .text.bcm2835_gpio_direction_input
                0x00027abc       0x50 drivers/gpio/built-in.o
 .text.bcm2835_gpio_direction_output
                0x00027b0c       0x6c drivers/gpio/built-in.o
 .text.bcm2835_gpio_ofdata_to_platdata
                0x00027b78       0x2c drivers/gpio/built-in.o
 .text.bcm2835_gpio_probe
                0x00027ba4       0x48 drivers/gpio/built-in.o
 .text.bcm2835_gpio_get_func_id
                0x00027bec       0x40 drivers/gpio/built-in.o
                0x00027bec                bcm2835_gpio_get_func_id
 .text.bcm2835_gpio_get_function
                0x00027c2c       0x14 drivers/gpio/built-in.o
 .text.find_mmc_device
                0x00027c40       0x4c drivers/mmc/built-in.o
                0x00027c40                find_mmc_device
 .text.mmc_select_hwpartp
                0x00027c8c       0x54 drivers/mmc/built-in.o
 .text.mmc_get_dev
                0x00027ce0       0x30 drivers/mmc/built-in.o
 .text.mmc_get_next_devnum
                0x00027d10       0x18 drivers/mmc/built-in.o
                0x00027d10                mmc_get_next_devnum
 .text.mmc_get_blk_desc
                0x00027d28        0x8 drivers/mmc/built-in.o
                0x00027d28                mmc_get_blk_desc
 .text.get_mmc_num
                0x00027d30       0x10 drivers/mmc/built-in.o
                0x00027d30                get_mmc_num
 .text.mmc_do_preinit
                0x00027d40       0x3c drivers/mmc/built-in.o
                0x00027d40                mmc_do_preinit
 .text.mmc_list_init
                0x00027d7c       0x24 drivers/mmc/built-in.o
                0x00027d7c                mmc_list_init
 .text.mmc_list_add
                0x00027da0       0x24 drivers/mmc/built-in.o
                0x00027da0                mmc_list_add
 .text.print_mmc_devices
                0x00027dc4       0xc0 drivers/mmc/built-in.o
                0x00027dc4                print_mmc_devices
 .text.mmc_create
                0x00027e84       0xd4 drivers/mmc/built-in.o
                0x00027e84                mmc_create
 .text.mmc_set_ios
                0x00027f58       0x18 drivers/mmc/built-in.o
 .text.mmc_set_capacity
                0x00027f70       0xb0 drivers/mmc/built-in.o
 .text.board_mmc_getwp
                0x00028020        0x8 drivers/mmc/built-in.o
                0x00028020                board_mmc_getwp
 .text.mmc_getwp
                0x00028028       0x3c drivers/mmc/built-in.o
                0x00028028                mmc_getwp
 .text.board_mmc_getcd
                0x00028064        0x8 drivers/mmc/built-in.o
                0x00028064                board_mmc_getcd
 .text.mmc_send_cmd
                0x0002806c       0x10 drivers/mmc/built-in.o
                0x0002806c                mmc_send_cmd
 .text.mmc_send_ext_csd
                0x0002807c       0x4c drivers/mmc/built-in.o
 .text.mmc_go_idle
                0x000280c8       0x4c drivers/mmc/built-in.o
 .text.mmc_send_op_cond_iter
                0x00028114       0x78 drivers/mmc/built-in.o
 .text.mmc_send_status
                0x0002818c       0xcc drivers/mmc/built-in.o
                0x0002818c                mmc_send_status
 .text.mmc_set_blocklen
                0x00028258       0x40 drivers/mmc/built-in.o
                0x00028258                mmc_set_blocklen
 .text.mmc_bread
                0x00028298      0x160 drivers/mmc/built-in.o
                0x00028298                mmc_bread
 .text.mmc_switch
                0x000283f8       0x68 drivers/mmc/built-in.o
                0x000283f8                mmc_switch
 .text.mmc_switch_part
                0x00028460       0x64 drivers/mmc/built-in.o
                0x00028460                mmc_switch_part
 .text.mmc_hwpart_config
                0x000284c4      0x434 drivers/mmc/built-in.o
                0x000284c4                mmc_hwpart_config
 .text.mmc_getcd
                0x000288f8       0x3c drivers/mmc/built-in.o
                0x000288f8                mmc_getcd
 .text.mmc_set_clock
                0x00028934       0x24 drivers/mmc/built-in.o
                0x00028934                mmc_set_clock
 .text.mmc_startup
                0x00028958      0xdbc drivers/mmc/built-in.o
 .text.board_mmc_power_init
                0x00029714        0x4 drivers/mmc/built-in.o
                0x00029714                board_mmc_power_init
 .text.mmc_start_init
                0x00029718      0x258 drivers/mmc/built-in.o
                0x00029718                mmc_start_init
 .text.mmc_init
                0x00029970       0xfc drivers/mmc/built-in.o
                0x00029970                mmc_init
 .text.mmc_set_dsr
                0x00029a6c        0xc drivers/mmc/built-in.o
                0x00029a6c                mmc_set_dsr
 .text.cpu_mmc_init
                0x00029a78        0x8 drivers/mmc/built-in.o
                0x00029a78                cpu_mmc_init
 .text.mmc_initialize
                0x00029a80       0x5c drivers/mmc/built-in.o
                0x00029a80                mmc_initialize
 .text.mmc_berase
                0x00029adc      0x1b4 drivers/mmc/built-in.o
                0x00029adc                mmc_berase
 .text.mmc_bwrite
                0x00029c90      0x18c drivers/mmc/built-in.o
                0x00029c90                mmc_bwrite
 .text.sdhci_reset
                0x00029e1c       0xa4 drivers/mmc/built-in.o
 .text.sdhci_init
                0x00029ec0      0x2a4 drivers/mmc/built-in.o
 .text.sdhci_set_ios
                0x0002a164      0x3b4 drivers/mmc/built-in.o
 .text.sdhci_send_command
                0x0002a518      0x72c drivers/mmc/built-in.o
 .text.sdhci_setup_cfg
                0x0002ac44      0x224 drivers/mmc/built-in.o
                0x0002ac44                sdhci_setup_cfg
 .text.add_sdhci
                0x0002ae68       0x60 drivers/mmc/built-in.o
                0x0002ae68                add_sdhci
 .text.bcm2835_sdhci_readl
                0x0002aec8       0x10 drivers/mmc/built-in.o
 .text.bcm2835_sdhci_readw
                0x0002aed8       0x24 drivers/mmc/built-in.o
 .text.bcm2835_sdhci_readb
                0x0002aefc       0x24 drivers/mmc/built-in.o
 .text.bcm2835_sdhci_writel
                0x0002af20       0x40 drivers/mmc/built-in.o
 .text.bcm2835_sdhci_writew
                0x0002af60       0x88 drivers/mmc/built-in.o
 .text.bcm2835_sdhci_writeb
                0x0002afe8       0x5c drivers/mmc/built-in.o
 .text.bcm2835_sdhci_init
                0x0002b044       0x88 drivers/mmc/built-in.o
                0x0002b044                bcm2835_sdhci_init
 .text._serial_putc
                0x0002b0cc       0x40 drivers/serial/built-in.o
 .text._serial_getc
                0x0002b10c       0x2c drivers/serial/built-in.o
 .text._serial_tstc
                0x0002b138       0x24 drivers/serial/built-in.o
 .text.serial_stub_putc
                0x0002b15c        0x8 drivers/serial/built-in.o
 .text.serial_stub_getc
                0x0002b164        0x8 drivers/serial/built-in.o
                0x0002b164                serial_stub_getc
 .text.serial_stub_tstc
                0x0002b16c        0x8 drivers/serial/built-in.o
                0x0002b16c                serial_stub_tstc
 .text.serial_pre_remove
                0x0002b174       0x24 drivers/serial/built-in.o
 .text.serial_post_probe
                0x0002b198       0xc0 drivers/serial/built-in.o
 .text.serial_stub_puts
                0x0002b258       0x28 drivers/serial/built-in.o
                0x0002b258                serial_stub_puts
 .text.serial_init
                0x0002b280      0x158 drivers/serial/built-in.o
                0x0002b280                serial_init
 .text.serial_initialize
                0x0002b3d8        0x4 drivers/serial/built-in.o
                0x0002b3d8                serial_initialize
 .text.serial_putc
                0x0002b3dc       0x18 drivers/serial/built-in.o
                0x0002b3dc                serial_putc
 .text.serial_puts
                0x0002b3f4       0x34 drivers/serial/built-in.o
                0x0002b3f4                serial_puts
 .text.serial_getc
                0x0002b428       0x14 drivers/serial/built-in.o
                0x0002b428                serial_getc
 .text.serial_tstc
                0x0002b43c       0x14 drivers/serial/built-in.o
                0x0002b43c                serial_tstc
 .text.serial_setbrg
                0x0002b450       0x30 drivers/serial/built-in.o
                0x0002b450                serial_setbrg
 .text.on_baudrate
                0x0002b480       0xf0 drivers/serial/built-in.o
 .text.serial_stdio_init
                0x0002b570        0x4 drivers/serial/built-in.o
                0x0002b570                serial_stdio_init
 .text.bcm283x_mu_serial_pending
                0x0002b574       0x50 drivers/serial/built-in.o
 .text.bcm283x_mu_serial_putc
                0x0002b5c4       0x54 drivers/serial/built-in.o
 .text.bcm283x_mu_serial_getc
                0x0002b618       0x4c drivers/serial/built-in.o
 .text.bcm283x_mu_serial_setbrg
                0x0002b664       0x58 drivers/serial/built-in.o
 .text.bcm283x_mu_serial_probe
                0x0002b6bc       0x34 drivers/serial/built-in.o
 .text.bcm283x_mu_serial_ofdata_to_platdata
                0x0002b6f0       0x74 drivers/serial/built-in.o
 .text.usb_host_eth_scan
                0x0002b764      0x1d4 drivers/usb/eth/built-in.o
                0x0002b764                usb_host_eth_scan
 .text.smsc95xx_halt
                0x0002b938        0x4 drivers/usb/eth/built-in.o
 .text.smsc95xx_write_reg
                0x0002b93c       0x68 drivers/usb/eth/built-in.o
 .text.smsc95xx_read_reg
                0x0002b9a4       0x74 drivers/usb/eth/built-in.o
 .text.smsc95xx_send_common
                0x0002ba18       0xb4 drivers/usb/eth/built-in.o
 .text.smsc95xx_send
                0x0002bacc        0x8 drivers/usb/eth/built-in.o
 .text.smsc95xx_recv
                0x0002bad4      0x10c drivers/usb/eth/built-in.o
 .text.unlikely.smsc95xx_phy_wait_not_busy
                0x0002bbe0       0x4c drivers/usb/eth/built-in.o
 .text.unlikely.smsc95xx_mdio_read
                0x0002bc2c       0x64 drivers/usb/eth/built-in.o
 .text.smsc95xx_write_hwaddr_common.isra.1
                0x0002bc90       0x64 drivers/usb/eth/built-in.o
 .text.smsc95xx_write_hwaddr
                0x0002bcf4       0x18 drivers/usb/eth/built-in.o
 .text.unlikely.smsc95xx_mdio_write
                0x0002bd0c       0x54 drivers/usb/eth/built-in.o
 .text.smsc95xx_init
                0x0002bd60      0x5b0 drivers/usb/eth/built-in.o
 .text.smsc95xx_eth_before_probe
                0x0002c310       0x14 drivers/usb/eth/built-in.o
                0x0002c310                smsc95xx_eth_before_probe
 .text.smsc95xx_eth_probe
                0x0002c324      0x150 drivers/usb/eth/built-in.o
                0x0002c324                smsc95xx_eth_probe
 .text.smsc95xx_eth_get_info
                0x0002c474       0x84 drivers/usb/eth/built-in.o
                0x0002c474                smsc95xx_eth_get_info
 .text.dwc_otg_core_reset
                0x0002c4f8       0xb0 drivers/usb/host/built-in.o
 .text.wait_for_chhltd
                0x0002c5a8       0x90 drivers/usb/host/built-in.o
                0x0002c5a8                wait_for_chhltd
 .text.chunk_msg
                0x0002c638      0x3dc drivers/usb/host/built-in.o
                0x0002c638                chunk_msg
 .text._submit_bulk_msg
                0x0002ca14       0x68 drivers/usb/host/built-in.o
                0x0002ca14                _submit_bulk_msg
 .text._submit_int_msg
                0x0002ca7c       0x80 drivers/usb/host/built-in.o
                0x0002ca7c                _submit_int_msg
 .text.submit_control_msg
                0x0002cafc      0x53c drivers/usb/host/built-in.o
                0x0002cafc                submit_control_msg
 .text.submit_bulk_msg
                0x0002d038       0x28 drivers/usb/host/built-in.o
                0x0002d038                submit_bulk_msg
 .text.submit_int_msg
                0x0002d060       0x2c drivers/usb/host/built-in.o
                0x0002d060                submit_int_msg
 .text.usb_lowlevel_init
                0x0002d08c      0x3f8 drivers/usb/host/built-in.o
                0x0002d08c                usb_lowlevel_init
 .text.usb_lowlevel_stop
                0x0002d484       0x28 drivers/usb/host/built-in.o
                0x0002d484                usb_lowlevel_stop
 .text.fs_probe_unsupported
                0x0002d4ac       0x18 fs/built-in.o
 .text.fs_exists_unsupported
                0x0002d4c4        0x8 fs/built-in.o
 .text.fs_size_unsupported
                0x0002d4cc        0x8 fs/built-in.o
 .text.fs_write_unsupported
                0x0002d4d4        0x8 fs/built-in.o
 .text.fs_close_unsupported
                0x0002d4dc        0x4 fs/built-in.o
 .text.fs_uuid_unsupported
                0x0002d4e0        0x8 fs/built-in.o
 .text.fs_get_info
                0x0002d4e8       0x34 fs/built-in.o
 .text.fs_close
                0x0002d51c       0x28 fs/built-in.o
 .text.fs_read_unsupported
                0x0002d544        0x8 fs/built-in.o
 .text.fs_ls_unsupported
                0x0002d54c        0x8 fs/built-in.o
 .text.fs_set_blk_dev
                0x0002d554       0xb4 fs/built-in.o
                0x0002d554                fs_set_blk_dev
 .text.fs_ls    0x0002d608       0x3c fs/built-in.o
                0x0002d608                fs_ls
 .text.fs_exists
                0x0002d644       0x34 fs/built-in.o
                0x0002d644                fs_exists
 .text.fs_size  0x0002d678       0x3c fs/built-in.o
                0x0002d678                fs_size
 .text.fs_read  0x0002d6b4       0xa0 fs/built-in.o
                0x0002d6b4                fs_read
 .text.fs_write
                0x0002d754       0x90 fs/built-in.o
                0x0002d754                fs_write
 .text.do_size  0x0002d7e4       0x60 fs/built-in.o
                0x0002d7e4                do_size
 .text.do_load  0x0002d844      0x240 fs/built-in.o
                0x0002d844                do_load
 .text.do_ls    0x0002da84       0x68 fs/built-in.o
                0x0002da84                do_ls
 .text.file_exists
                0x0002daec       0x2c fs/built-in.o
                0x0002daec                file_exists
 .text.do_save  0x0002db18      0x178 fs/built-in.o
                0x0002db18                do_save
 .text.do_fs_type
                0x0002dc90       0x70 fs/built-in.o
                0x0002dc90                do_fs_type
 .text.get_fs   0x0002dd00        0xc fs/built-in.o
                0x0002dd00                get_fs
 .text.ext4fs_free_node
                0x0002dd0c       0x20 fs/built-in.o
                0x0002dd0c                ext4fs_free_node
 .text.ext4fs_read_file
                0x0002dd2c      0x374 fs/built-in.o
                0x0002dd2c                ext4fs_read_file
 .text.ext4fs_ls
                0x0002e0a0       0x78 fs/built-in.o
                0x0002e0a0                ext4fs_ls
 .text.ext4fs_exists
                0x0002e118       0x1c fs/built-in.o
                0x0002e118                ext4fs_exists
 .text.ext4fs_size
                0x0002e134        0x4 fs/built-in.o
                0x0002e134                ext4fs_size
 .text.ext4fs_read
                0x0002e138       0x5c fs/built-in.o
                0x0002e138                ext4fs_read
 .text.ext4fs_probe
                0x0002e194       0x30 fs/built-in.o
                0x0002e194                ext4fs_probe
 .text.ext4_read_file
                0x0002e1c4       0x70 fs/built-in.o
                0x0002e1c4                ext4_read_file
 .text.ext4fs_uuid
                0x0002e234       0x38 fs/built-in.o
                0x0002e234                ext4fs_uuid
 .text.ext4fs_bg_get_inode_table_id
                0x0002e26c       0x40 fs/built-in.o
                0x0002e26c                ext4fs_bg_get_inode_table_id
 .text.ext4fs_read_inode
                0x0002e2ac      0x154 fs/built-in.o
                0x0002e2ac                ext4fs_read_inode
 .text.read_allocated_block
                0x0002e400      0x8c8 fs/built-in.o
                0x0002e400                read_allocated_block
 .text.ext4fs_reinit_global
                0x0002ecc8       0xbc fs/built-in.o
                0x0002ecc8                ext4fs_reinit_global
 .text.ext4fs_close
                0x0002ed84       0x5c fs/built-in.o
                0x0002ed84                ext4fs_close
 .text.ext4fs_iterate_dir
                0x0002ede0      0x2c0 fs/built-in.o
                0x0002ede0                ext4fs_iterate_dir
 .text.ext4fs_find_file1
                0x0002f0a0      0x2b8 fs/built-in.o
 .text.ext4fs_find_file
                0x0002f358       0x78 fs/built-in.o
                0x0002f358                ext4fs_find_file
 .text.ext4fs_open
                0x0002f3d0       0xac fs/built-in.o
                0x0002f3d0                ext4fs_open
 .text.ext4fs_mount
                0x0002f47c       0xe4 fs/built-in.o
                0x0002f47c                ext4fs_mount
 .text.ext4fs_set_blk_dev
                0x0002f560       0x6c fs/built-in.o
                0x0002f560                ext4fs_set_blk_dev
 .text.ext4fs_devread
                0x0002f5cc      0x278 fs/built-in.o
                0x0002f5cc                ext4fs_devread
 .text.ext4_read_superblock
                0x0002f844       0x38 fs/built-in.o
                0x0002f844                ext4_read_superblock
 .text.downcase
                0x0002f87c       0x30 fs/built-in.o
 .text.disk_read
                0x0002f8ac       0x6c fs/built-in.o
 .text.dirdelim
                0x0002f918       0x38 fs/built-in.o
 .text.mkcksum  0x0002f950       0x50 fs/built-in.o
 .text.disk_write
                0x0002f9a0       0x90 fs/built-in.o
 .text.flush_dirty_fat_buffer
                0x0002fa30       0xa8 fs/built-in.o
 .text.set_fatent_value
                0x0002fad8      0x1d0 fs/built-in.o
 .text.get_fatent
                0x0002fca8      0x18c fs/built-in.o
 .text.find_empty_cluster
                0x0002fe34       0x2c fs/built-in.o
 .text.get_cluster
                0x0002fe60      0x16c fs/built-in.o
 .text.get_name
                0x0002ffcc       0xac fs/built-in.o
 .text.set_cluster
                0x00030078      0x16c fs/built-in.o
 .text.read_bootsectandvi
                0x000301e4      0x11c fs/built-in.o
 .text.set_name
                0x00030300      0x14c fs/built-in.o
 .text.check_overflow
                0x0003044c       0xa8 fs/built-in.o
 .text.slot2str
                0x000304f4       0xbc fs/built-in.o
 .text.get_vfatname
                0x000305b0      0x1b8 fs/built-in.o
 .text.flush_dir_table.constprop.8
                0x00030768       0xd4 fs/built-in.o
 .text.do_fat_write
                0x0003083c      0xc1c fs/built-in.o
 .text.fat_set_blk_dev
                0x00031458       0xcc fs/built-in.o
                0x00031458                fat_set_blk_dev
 .text.do_fat_read_at
                0x00031524      0xca8 fs/built-in.o
                0x00031524                do_fat_read_at
 .text.do_fat_read
                0x000321cc       0x3c fs/built-in.o
                0x000321cc                do_fat_read
 .text.file_fat_detectfs
                0x00032208      0x148 fs/built-in.o
                0x00032208                file_fat_detectfs
 .text.file_fat_ls
                0x00032350       0x2c fs/built-in.o
                0x00032350                file_fat_ls
 .text.fat_exists
                0x0003237c       0x44 fs/built-in.o
                0x0003237c                fat_exists
 .text.fat_size
                0x000323c0       0x38 fs/built-in.o
                0x000323c0                fat_size
 .text.file_fat_read_at
                0x000323f8       0x60 fs/built-in.o
                0x000323f8                file_fat_read_at
 .text.file_fat_read
                0x00032458       0x38 fs/built-in.o
                0x00032458                file_fat_read
 .text.fat_read_file
                0x00032490       0x48 fs/built-in.o
                0x00032490                fat_read_file
 .text.fat_close
                0x000324d8        0x4 fs/built-in.o
                0x000324d8                fat_close
 .text.file_fat_write
                0x000324dc       0x5c fs/built-in.o
                0x000324dc                file_fat_write
 .text.efi_return_handle
                0x00032538        0xc lib/built-in.o
                0x00032538                efi_return_handle
 .text.efi_load_pe
                0x00032544      0x2c0 lib/built-in.o
                0x00032544                efi_load_pe
 .text.efi_search.isra.0.part.1
                0x00032804       0x48 lib/built-in.o
 .text.efi_save_gd
                0x0003284c       0x10 lib/built-in.o
                0x0003284c                efi_save_gd
 .text.efi_restore_gd
                0x0003285c       0x2c lib/built-in.o
                0x0003285c                efi_restore_gd
 .text.efi_set_mem
                0x00032888       0x20 lib/built-in.o
 .text.efi_copy_mem
                0x000328a8       0x18 lib/built-in.o
 .text.efi_exit
                0x000328c0       0x30 lib/built-in.o
 .text.efi_allocate_pages_ext
                0x000328f0       0x2c lib/built-in.o
                0x000328f0                efi_allocate_pages_ext
 .text.efi_free_pages_ext
                0x0003291c       0x28 lib/built-in.o
                0x0003291c                efi_free_pages_ext
 .text.efi_get_memory_map_ext
                0x00032944       0x38 lib/built-in.o
                0x00032944                efi_get_memory_map_ext
 .text.efi_calculate_crc32
                0x0003297c       0x38 lib/built-in.o
 .text.efi_uninstall_multiple_protocol_interfaces
                0x000329b4       0x28 lib/built-in.o
 .text.efi_install_multiple_protocol_interfaces
                0x000329dc       0x28 lib/built-in.o
 .text.efi_locate_protocol
                0x00032a04       0x44 lib/built-in.o
 .text.efi_locate_handle_buffer
                0x00032a48       0x1c lib/built-in.o
 .text.efi_protocols_per_handle
                0x00032a64       0x1c lib/built-in.o
 .text.efi_open_protocol_information
                0x00032a80       0x1c lib/built-in.o
 .text.efi_open_protocol
                0x00032a9c       0xc8 lib/built-in.o
 .text.efi_handle_protocol
                0x00032b64       0x1c lib/built-in.o
 .text.efi_disconnect_controller
                0x00032b80       0x1c lib/built-in.o
 .text.efi_connect_controller
                0x00032b9c       0x1c lib/built-in.o
 .text.efi_set_watchdog_timer
                0x00032bb8       0x1c lib/built-in.o
 .text.efi_stall
                0x00032bd4       0x20 lib/built-in.o
 .text.efi_get_next_monotonic_count
                0x00032bf4       0x38 lib/built-in.o
 .text.efi_exit_boot_services
                0x00032c2c       0x3c lib/built-in.o
 .text.efi_unload_image
                0x00032c68       0x64 lib/built-in.o
 .text.efi_start_image
                0x00032ccc       0x74 lib/built-in.o
 .text.efi_load_image
                0x00032d40       0xc0 lib/built-in.o
 .text.efi_locate_device_path
                0x00032e00       0x1c lib/built-in.o
 .text.efi_locate_handle
                0x00032e1c       0xdc lib/built-in.o
 .text.efi_reinstall_protocol_interface
                0x00032ef8       0x1c lib/built-in.o
 .text.efi_install_protocol_interface
                0x00032f14       0x1c lib/built-in.o
 .text.efi_check_event
                0x00032f30       0x1c lib/built-in.o
 .text.efi_close_event
                0x00032f4c       0x30 lib/built-in.o
 .text.efi_signal_event
                0x00032f7c       0x1c lib/built-in.o
 .text.efi_set_timer
                0x00032f98       0xbc lib/built-in.o
 .text.efi_create_event
                0x00033054       0x54 lib/built-in.o
 .text.efi_free_pool_ext
                0x000330a8       0x1c lib/built-in.o
 .text.efi_allocate_pool_ext
                0x000330c4       0x24 lib/built-in.o
 .text.efi_restore_tpl
                0x000330e8       0x18 lib/built-in.o
 .text.efi_raise_tpl
                0x00033100       0x1c lib/built-in.o
 .text.efi_close_protocol
                0x0003311c       0x1c lib/built-in.o
 .text.efi_uninstall_protocol_interface
                0x00033138       0x1c lib/built-in.o
 .text.efi_register_protocol_notify
                0x00033154       0x1c lib/built-in.o
 .text.efi_exit_func
                0x00033170       0x10 lib/built-in.o
                0x00033170                efi_exit_func
 .text.efi_timer_check
                0x00033180       0x64 lib/built-in.o
                0x00033180                efi_timer_check
 .text.efi_wait_for_event
                0x000331e4       0x40 lib/built-in.o
 .text.efi_install_configuration_table
                0x00033224       0xa4 lib/built-in.o
                0x00033224                efi_install_configuration_table
 .text.efi_install_configuration_table_ext
                0x000332c8       0x24 lib/built-in.o
 .text.efi_get_time_boottime
                0x000332ec        0x8 lib/built-in.o
 .text.efi_reset_system_boottime
                0x000332f4       0x2c lib/built-in.o
 .text.efi_get_time_init
                0x00033320        0x4 lib/built-in.o
                0x00033320                efi_get_time_init
 .text.efi_runtime_relocate
                0x00033324      0x130 lib/built-in.o
                0x00033324                efi_runtime_relocate
 .text.efi_set_virtual_address_map
                0x00033454      0x180 lib/built-in.o
 .text.efi_add_runtime_mmio
                0x000335d4       0x88 lib/built-in.o
                0x000335d4                efi_add_runtime_mmio
 .text.efi_cin_lock_std_in
                0x0003365c       0x14 lib/built-in.o
 .text.efi_cin_set_mode
                0x00033670       0x14 lib/built-in.o
 .text.efi_cin_get_mode
                0x00033684       0x44 lib/built-in.o
 .text.efi_cout_set_attribute
                0x000336c8       0x14 lib/built-in.o
 .text.efi_cout_test_string
                0x000336dc       0x14 lib/built-in.o
 .text.efi_cout_reset
                0x000336f0       0x14 lib/built-in.o
 .text.efi_cin_reset
                0x00033704       0x14 lib/built-in.o
 .text.efi_cout_enable_cursor
                0x00033718       0x30 lib/built-in.o
 .text.efi_cout_set_cursor_position
                0x00033748       0x40 lib/built-in.o
 .text.efi_cout_clear_screen
                0x00033788       0x20 lib/built-in.o
 .text.efi_cout_output_string
                0x000337a8       0xf4 lib/built-in.o
 .text.efi_cout_set_mode
                0x0003389c       0x38 lib/built-in.o
 .text.efi_cin_read_key_stroke
                0x000338d4      0x120 lib/built-in.o
 .text.efi_cout_query_mode
                0x000339f4      0x214 lib/built-in.o
 .text.efi_mem_cmp
                0x00033c08       0x30 lib/built-in.o
 .text.efi_find_free_memory
                0x00033c38       0xd0 lib/built-in.o
 .text.efi_add_memory_map
                0x00033d08      0x338 lib/built-in.o
                0x00033d08                efi_add_memory_map
 .text.efi_allocate_pages
                0x00034040       0xb0 lib/built-in.o
                0x00034040                efi_allocate_pages
 .text.efi_alloc
                0x000340f0       0x54 lib/built-in.o
                0x000340f0                efi_alloc
 .text.efi_free_pages
                0x00034144       0x38 lib/built-in.o
                0x00034144                efi_free_pages
 .text.efi_allocate_pool
                0x0003417c       0x58 lib/built-in.o
                0x0003417c                efi_allocate_pool
 .text.efi_free_pool
                0x000341d4       0x10 lib/built-in.o
                0x000341d4                efi_free_pool
 .text.efi_get_memory_map
                0x000341e4       0xb8 lib/built-in.o
                0x000341e4                efi_get_memory_map
 .text.efi_memory_init
                0x0003429c       0xd4 lib/built-in.o
                0x0003429c                efi_memory_init
 .text.gop_query_mode
                0x00034370       0x30 lib/built-in.o
 .text.gop_set_mode
                0x000343a0       0x20 lib/built-in.o
 .text.gop_blt  0x000343c0      0x134 lib/built-in.o
 .text.efi_gop_register
                0x000344f4      0x100 lib/built-in.o
                0x000344f4                efi_gop_register
 .text.efi_disk_open_block
                0x000345f4       0x10 lib/built-in.o
 .text.efi_disk_open_dp
                0x00034604       0x10 lib/built-in.o
 .text.efi_disk_flush_blocks
                0x00034614       0x14 lib/built-in.o
 .text.efi_disk_reset
                0x00034628       0x14 lib/built-in.o
 .text.efi_disk_add_dev.part.0
                0x0003463c      0x154 lib/built-in.o
 .text.efi_disk_read_blocks
                0x00034790       0x8c lib/built-in.o
 .text.efi_disk_write_blocks
                0x0003481c       0x8c lib/built-in.o
 .text.efi_disk_register
                0x000348a8      0x17c lib/built-in.o
                0x000348a8                efi_disk_register
 .text.efi_net_push
                0x00034a24       0x14 lib/built-in.o
 .text.efi_net_open_dp
                0x00034a38       0x10 lib/built-in.o
 .text.efi_net_open_pxe
                0x00034a48       0x10 lib/built-in.o
 .text.efi_net_get_status
                0x00034a58       0x40 lib/built-in.o
 .text.efi_net_nvdata
                0x00034a98       0x14 lib/built-in.o
 .text.efi_net_mcastiptomac
                0x00034aac       0x14 lib/built-in.o
 .text.efi_net_station_address
                0x00034ac0       0x14 lib/built-in.o
 .text.efi_net_receive_filters
                0x00034ad4       0x14 lib/built-in.o
 .text.efi_net_shutdown
                0x00034ae8       0x14 lib/built-in.o
 .text.efi_net_stop
                0x00034afc        0x4 lib/built-in.o
 .text.efi_net_start
                0x00034b00        0x4 lib/built-in.o
 .text.efi_net_reset
                0x00034b04       0x14 lib/built-in.o
 .text.efi_net_initialize
                0x00034b18       0x18 lib/built-in.o
 .text.efi_net_receive
                0x00034b30       0x94 lib/built-in.o
 .text.efi_net_transmit
                0x00034bc4       0x44 lib/built-in.o
 .text.efi_net_statistics
                0x00034c08       0x14 lib/built-in.o
 .text.efi_net_set_dhcp_ack
                0x00034c1c       0x48 lib/built-in.o
                0x00034c1c                efi_net_set_dhcp_ack
 .text.efi_net_register
                0x00034c64      0x248 lib/built-in.o
                0x00034c64                efi_net_register
 .text.efi_smbios_register
                0x00034eac       0x4c lib/built-in.o
                0x00034eac                efi_smbios_register
 .text.zcalloc  0x00034ef8        0x8 lib/built-in.o
                0x00034ef8                zcalloc
 .text.zcfree   0x00034f00        0x8 lib/built-in.o
                0x00034f00                zcfree
 .text.inflate_fast
                0x00034f08      0x570 lib/built-in.o
                0x00034f08                inflate_fast
 .text.inflate_table
                0x00035478      0x528 lib/built-in.o
                0x00035478                inflate_table
 .text.inflateReset
                0x000359a0       0x78 lib/built-in.o
                0x000359a0                inflateReset
 .text.inflateInit2_
                0x00035a18      0x100 lib/built-in.o
                0x00035a18                inflateInit2_
 .text.inflateEnd
                0x00035b18       0x64 lib/built-in.o
                0x00035b18                inflateEnd
 .text.adler32  0x00035b7c      0x33c lib/built-in.o
                0x00035b7c                adler32
 .text.inflate  0x00035eb8     0x14bc lib/built-in.o
                0x00035eb8                inflate
 .text.crc16_ccitt
                0x00037374       0x3c lib/built-in.o
                0x00037374                crc16_ccitt
 .text.gzalloc  0x000373b0       0x10 lib/built-in.o
                0x000373b0                gzalloc
 .text.gzfree   0x000373c0        0x8 lib/built-in.o
                0x000373c0                gzfree
 .text.zunzip   0x000373c8      0x11c lib/built-in.o
                0x000373c8                zunzip
 .text.gunzip   0x000374e4       0xb4 lib/built-in.o
                0x000374e4                gunzip
 .text.smbios_write_type127
                0x00037598       0x54 lib/built-in.o
 .text.smbios_write_type32
                0x000375ec       0x54 lib/built-in.o
 .text.smbios_string_table_len
                0x00037640       0x38 lib/built-in.o
 .text.smbios_add_string
                0x00037678       0x68 lib/built-in.o
 .text.smbios_write_type3
                0x000376e0       0x8c lib/built-in.o
 .text.smbios_write_type2
                0x0003776c       0x9c lib/built-in.o
 .text.smbios_write_type0
                0x00037808       0xf4 lib/built-in.o
 .text.smbios_write_type1
                0x000378fc       0xc4 lib/built-in.o
 .text.smbios_write_type4
                0x000379c0       0xd8 lib/built-in.o
 .text.write_smbios_table
                0x00037a98      0x11c lib/built-in.o
                0x00037a98                write_smbios_table
 .text.initcall_run_list
                0x00037bb4       0x60 lib/built-in.o
                0x00037bb4                initcall_run_list
 .text.lmb_add_region
                0x00037c14      0x18c lib/built-in.o
 .text.lmb_init
                0x00037da0       0x28 lib/built-in.o
                0x00037da0                lmb_init
 .text.lmb_add  0x00037dc8        0x4 lib/built-in.o
                0x00037dc8                lmb_add
 .text.lmb_free
                0x00037dcc       0xe8 lib/built-in.o
                0x00037dcc                lmb_free
 .text.lmb_reserve
                0x00037eb4        0x8 lib/built-in.o
                0x00037eb4                lmb_reserve
 .text.__lmb_alloc_base
                0x00037ebc      0x120 lib/built-in.o
                0x00037ebc                __lmb_alloc_base
 .text.lmb_alloc_base
                0x00037fdc       0x34 lib/built-in.o
                0x00037fdc                lmb_alloc_base
 .text.lmb_alloc
                0x00038010        0x8 lib/built-in.o
                0x00038010                lmb_alloc
 .text.board_lmb_reserve
                0x00038018        0x4 lib/built-in.o
                0x00038018                board_lmb_reserve
 .text.string_to_ip
                0x0003801c       0x6c lib/built-in.o
                0x0003801c                string_to_ip
 .text.qsort    0x00038088       0xec lib/built-in.o
                0x00038088                qsort
 .text.strcmp_compar
                0x00038174        0xc lib/built-in.o
                0x00038174                strcmp_compar
 .text.merge    0x00038180       0x68 lib/built-in.o
 .text.list_sort
                0x000381e8      0x194 lib/built-in.o
                0x000381e8                list_sort
 .text.fdt_check_header
                0x0003837c       0x74 lib/built-in.o
                0x0003837c                fdt_check_header
 .text.fdt_offset_ptr
                0x000383f0       0x6c lib/built-in.o
                0x000383f0                fdt_offset_ptr
 .text.fdt_next_tag
                0x0003845c       0xfc lib/built-in.o
                0x0003845c                fdt_next_tag
 .text._fdt_check_node_offset
                0x00038558       0x3c lib/built-in.o
                0x00038558                _fdt_check_node_offset
 .text._fdt_check_prop_offset
                0x00038594       0x3c lib/built-in.o
                0x00038594                _fdt_check_prop_offset
 .text.fdt_next_node
                0x000385d0       0xbc lib/built-in.o
                0x000385d0                fdt_next_node
 .text.fdt_first_subnode
                0x0003868c       0x34 lib/built-in.o
                0x0003868c                fdt_first_subnode
 .text.fdt_next_subnode
                0x000386c0       0x50 lib/built-in.o
                0x000386c0                fdt_next_subnode
 .text._fdt_find_string
                0x00038710       0x58 lib/built-in.o
                0x00038710                _fdt_find_string
 .text.fdt_move
                0x00038768       0x44 lib/built-in.o
                0x00038768                fdt_move
 .text.fdt_path_next_separator
                0x000387ac       0x50 lib/built-in.o
 .text._nextprop
                0x000387fc       0x54 lib/built-in.o
 .text.fdt_string
                0x00038850       0x14 lib/built-in.o
                0x00038850                fdt_string
 .text.fdt_get_mem_rsv
                0x00038864       0x60 lib/built-in.o
                0x00038864                fdt_get_mem_rsv
 .text.fdt_num_mem_rsv
                0x000388c4       0x40 lib/built-in.o
                0x000388c4                fdt_num_mem_rsv
 .text.fdt_subnode_offset_namelen
                0x00038904       0xd0 lib/built-in.o
                0x00038904                fdt_subnode_offset_namelen
 .text.fdt_subnode_offset
                0x000389d4       0x30 lib/built-in.o
                0x000389d4                fdt_subnode_offset
 .text.fdt_get_name
                0x00038a04       0x70 lib/built-in.o
                0x00038a04                fdt_get_name
 .text.fdt_first_property_offset
                0x00038a74       0x20 lib/built-in.o
                0x00038a74                fdt_first_property_offset
 .text.fdt_next_property_offset
                0x00038a94       0x20 lib/built-in.o
                0x00038a94                fdt_next_property_offset
 .text.fdt_get_property_by_offset
                0x00038ab4       0x50 lib/built-in.o
                0x00038ab4                fdt_get_property_by_offset
 .text.fdt_get_property_namelen
                0x00038b04       0xb8 lib/built-in.o
                0x00038b04                fdt_get_property_namelen
 .text.fdt_get_property
                0x00038bbc       0x3c lib/built-in.o
                0x00038bbc                fdt_get_property
 .text.fdt_getprop_namelen
                0x00038bf8       0x20 lib/built-in.o
                0x00038bf8                fdt_getprop_namelen
 .text.fdt_getprop_by_offset
                0x00038c18       0x48 lib/built-in.o
                0x00038c18                fdt_getprop_by_offset
 .text.fdt_getprop
                0x00038c60       0x3c lib/built-in.o
                0x00038c60                fdt_getprop
 .text.fdt_get_alias_namelen
                0x00038c9c       0x44 lib/built-in.o
                0x00038c9c                fdt_get_alias_namelen
 .text.fdt_path_offset_namelen
                0x00038ce0       0xe4 lib/built-in.o
                0x00038ce0                fdt_path_offset_namelen
 .text.fdt_path_offset
                0x00038dc4       0x28 lib/built-in.o
                0x00038dc4                fdt_path_offset
 .text.fdt_supernode_atdepth_offset
                0x00038dec       0xa4 lib/built-in.o
                0x00038dec                fdt_supernode_atdepth_offset
 .text.fdt_node_depth
                0x00038e90       0x28 lib/built-in.o
                0x00038e90                fdt_node_depth
 .text.fdt_parent_offset
                0x00038eb8       0x30 lib/built-in.o
                0x00038eb8                fdt_parent_offset
 .text._fdt_blocks_misordered
                0x00038ee8       0x64 lib/built-in.o
 .text._fdt_splice
                0x00038f4c       0x90 lib/built-in.o
 .text._fdt_splice_mem_rsv
                0x00038fdc       0x58 lib/built-in.o
 .text._fdt_splice_struct
                0x00039034       0x4c lib/built-in.o
 .text._fdt_packblocks
                0x00039080       0x8c lib/built-in.o
 .text._fdt_find_add_string
                0x0003910c       0xa4 lib/built-in.o
 .text._fdt_add_property
                0x000391b0       0x90 lib/built-in.o
 .text._fdt_rw_check_header
                0x00039240       0x60 lib/built-in.o
 .text.fdt_add_mem_rsv
                0x000392a0       0x88 lib/built-in.o
                0x000392a0                fdt_add_mem_rsv
 .text.fdt_del_mem_rsv
                0x00039328       0x58 lib/built-in.o
                0x00039328                fdt_del_mem_rsv
 .text.fdt_set_name
                0x00039380       0x88 lib/built-in.o
                0x00039380                fdt_set_name
 .text.fdt_setprop
                0x00039408       0xdc lib/built-in.o
                0x00039408                fdt_setprop
 .text.fdt_delprop
                0x000394e4       0x68 lib/built-in.o
                0x000394e4                fdt_delprop
 .text.fdt_add_subnode_namelen
                0x0003954c       0xf0 lib/built-in.o
                0x0003954c                fdt_add_subnode_namelen
 .text.fdt_add_subnode
                0x0003963c       0x30 lib/built-in.o
                0x0003963c                fdt_add_subnode
 .text.fdt_del_node
                0x0003966c       0x50 lib/built-in.o
                0x0003966c                fdt_del_node
 .text.fdt_open_into
                0x000396bc      0x194 lib/built-in.o
                0x000396bc                fdt_open_into
 .text.fdt_strerror
                0x00039850       0x58 lib/built-in.o
                0x00039850                fdt_strerror
 .text._fdt_node_end_offset
                0x000398a8       0x44 lib/built-in.o
                0x000398a8                _fdt_node_end_offset
 .text.fdt_address_cells
                0x000398ec       0x4c lib/built-in.o
                0x000398ec                fdt_address_cells
 .text.fdt_size_cells
                0x00039938       0x48 lib/built-in.o
                0x00039938                fdt_size_cells
 .text.fdtdec_get_int
                0x00039980       0x34 lib/built-in.o
                0x00039980                fdtdec_get_int
 .text.get_prop_check_min_len
                0x000399b4       0x3c lib/built-in.o
 .text.fdtdec_get_is_enabled
                0x000399f0       0x3c lib/built-in.o
                0x000399f0                fdtdec_get_is_enabled
 .text.fdtdec_get_alias_seq
                0x00039a2c      0x118 lib/built-in.o
                0x00039a2c                fdtdec_get_alias_seq
 .text.fdtdec_get_chosen_prop
                0x00039b44       0x34 lib/built-in.o
                0x00039b44                fdtdec_get_chosen_prop
 .text.fdtdec_get_chosen_node
                0x00039b78       0x28 lib/built-in.o
                0x00039b78                fdtdec_get_chosen_node
 .text.fdtdec_prepare_fdt
                0x00039ba0       0x44 lib/built-in.o
                0x00039ba0                fdtdec_prepare_fdt
 .text.fdtdec_get_int_array
                0x00039be4       0x60 lib/built-in.o
                0x00039be4                fdtdec_get_int_array
 .text.fdtdec_get_bool
                0x00039c44       0x1c lib/built-in.o
                0x00039c44                fdtdec_get_bool
 .text.fdtdec_get_config_int
                0x00039c60       0x40 lib/built-in.o
                0x00039c60                fdtdec_get_config_int
 .text.fdtdec_get_config_string
                0x00039ca0       0x3c lib/built-in.o
                0x00039ca0                fdtdec_get_config_string
 .text.fdtdec_setup
                0x00039cdc       0x34 lib/built-in.o
                0x00039cdc                fdtdec_setup
 .text.cmpkey   0x00039d10       0x14 lib/built-in.o
 .text._hdelete.isra.0
                0x00039d24       0x50 lib/built-in.o
 .text.drop_var_from_set.part.1
                0x00039d74       0x50 lib/built-in.o
 .text.match_string
                0x00039dc4       0xb4 lib/built-in.o
 .text.match_entry
                0x00039e78       0xb4 lib/built-in.o
 .text.hcreate_r
                0x00039f2c       0xa4 lib/built-in.o
                0x00039f2c                hcreate_r
 .text.hdestroy_r
                0x00039fd0       0x74 lib/built-in.o
                0x00039fd0                hdestroy_r
 .text.hmatch_r
                0x0003a044       0xa0 lib/built-in.o
                0x0003a044                hmatch_r
 .text.hsearch_r
                0x0003a0e4      0x474 lib/built-in.o
                0x0003a0e4                hsearch_r
 .text.hdelete_r
                0x0003a558       0xec lib/built-in.o
                0x0003a558                hdelete_r
 .text.hexport_r
                0x0003a644      0x29c lib/built-in.o
                0x0003a644                hexport_r
 .text.himport_r
                0x0003a8e0      0x3ec lib/built-in.o
                0x0003a8e0                himport_r
 .text.hwalk_r  0x0003accc       0x5c lib/built-in.o
                0x0003accc                hwalk_r
 .text.display_options
                0x0003ad28       0x20 lib/built-in.o
                0x0003ad28                display_options
 .text.print_size
                0x0003ad48      0x13c lib/built-in.o
                0x0003ad48                print_size
 .text.print_buffer
                0x0003ae84      0x1b4 lib/built-in.o
                0x0003ae84                print_buffer
 .text.crc32_no_comp
                0x0003b038       0xd4 lib/built-in.o
                0x0003b038                crc32_no_comp
 .text.crc32    0x0003b10c       0x14 lib/built-in.o
                0x0003b10c                crc32
 .text.crc32_wd
                0x0003b120        0x4 lib/built-in.o
                0x0003b120                crc32_wd
 .text.__div64_32
                0x0003b124       0xd0 lib/built-in.o
                0x0003b124                __div64_32
 .text.hang     0x0003b1f4       0x1c lib/built-in.o
                0x0003b1f4                hang
 .text.skip_spaces
                0x0003b210       0x28 lib/built-in.o
                0x0003b210                skip_spaces
 .text.strim    0x0003b238       0x5c lib/built-in.o
                0x0003b238                strim
 .text.emit     0x0003b294       0x24 lib/built-in.o
 .text.store_char_in_data
                0x0003b2b8       0x28 lib/built-in.o
 .text.get_escape_char
                0x0003b2e0       0x84 lib/built-in.o
 .text.relocate
                0x0003b364       0x40 lib/built-in.o
 .text.match    0x0003b3a4      0x3f4 lib/built-in.o
 .text.loop_greedy
                0x0003b798       0x94 lib/built-in.o
 .text.loop_non_greedy
                0x0003b82c       0x80 lib/built-in.o
 .text.quantifier
                0x0003b8ac       0x94 lib/built-in.o
 .text.fixup_branch
                0x0003b940       0x3c lib/built-in.o
 .text.compile  0x0003b97c      0x348 lib/built-in.o
 .text.slre_compile
                0x0003bcc4       0xd0 lib/built-in.o
                0x0003bcc4                slre_compile
 .text.slre_match
                0x0003bd94       0x9c lib/built-in.o
                0x0003bd94                slre_match
 .text.strncasecmp
                0x0003be30       0x80 lib/built-in.o
                0x0003be30                strncasecmp
 .text.strcpy   0x0003beb0       0x18 lib/built-in.o
                0x0003beb0                strcpy
 .text.strncpy  0x0003bec8       0x24 lib/built-in.o
                0x0003bec8                strncpy
 .text.strcat   0x0003beec       0x30 lib/built-in.o
                0x0003beec                strcat
 .text.strncat  0x0003bf1c       0x50 lib/built-in.o
                0x0003bf1c                strncat
 .text.strcmp   0x0003bf6c       0x28 lib/built-in.o
                0x0003bf6c                strcmp
 .text.strncmp  0x0003bf94       0x3c lib/built-in.o
                0x0003bf94                strncmp
 .text.strchr   0x0003bfd0       0x2c lib/built-in.o
                0x0003bfd0                strchr
 .text.strlen   0x0003bffc       0x24 lib/built-in.o
                0x0003bffc                strlen
 .text.strlcpy  0x0003c020       0x50 lib/built-in.o
                0x0003c020                strlcpy
 .text.strrchr  0x0003c070       0x3c lib/built-in.o
                0x0003c070                strrchr
 .text.strnlen  0x0003c0ac       0x30 lib/built-in.o
                0x0003c0ac                strnlen
 .text.strdup   0x0003c0dc       0x34 lib/built-in.o
                0x0003c0dc                strdup
 .text.memmove  0x0003c110       0x48 lib/built-in.o
                0x0003c110                memmove
 .text.memcmp   0x0003c158       0x34 lib/built-in.o
                0x0003c158                memcmp
 .text.memscan  0x0003c18c       0x2c lib/built-in.o
                0x0003c18c                memscan
 .text.strstr   0x0003c1b8       0x6c lib/built-in.o
                0x0003c1b8                strstr
 .text.memchr   0x0003c224       0x30 lib/built-in.o
                0x0003c224                memchr
 .text.get_tbclk
                0x0003c254        0xc lib/built-in.o
                0x0003c254                get_tbclk
 .text.get_ticks
                0x0003c260       0x48 lib/built-in.o
                0x0003c260                get_ticks
 .text.timer_init
                0x0003c2a8        0x8 lib/built-in.o
                0x0003c2a8                timer_init
 .text.get_timer
                0x0003c2b0       0x68 lib/built-in.o
                0x0003c2b0                get_timer
 .text.timer_get_us
                0x0003c318       0x60 lib/built-in.o
                0x0003c318                timer_get_us
 .text.__udelay
                0x0003c378       0x84 lib/built-in.o
                0x0003c378                __udelay
 .text.udelay   0x0003c3fc       0x30 lib/built-in.o
                0x0003c3fc                udelay
 .text.mdelay   0x0003c42c       0x24 lib/built-in.o
                0x0003c42c                mdelay
 .text.uuid_str_valid
                0x0003c450       0x8c lib/built-in.o
                0x0003c450                uuid_str_valid
 .text.uuid_str_to_bin
                0x0003c4dc      0x194 lib/built-in.o
                0x0003c4dc                uuid_str_to_bin
 .text.uuid_bin_to_str
                0x0003c670       0xac lib/built-in.o
                0x0003c670                uuid_bin_to_str
 .text.put_dec_trunc
                0x0003c71c       0xd4 lib/built-in.o
 .text.string   0x0003c7f0       0xbc lib/built-in.o
 *fill*         0x0003c8ac        0x4 
 .text.put_dec  0x0003c8b0      0x140 lib/built-in.o
 .text.number   0x0003c9f0      0x2b4 lib/built-in.o
 .text.vsnprintf_internal
                0x0003cca4      0x680 lib/built-in.o
 .text.vscnprintf
                0x0003d324       0x24 lib/built-in.o
                0x0003d324                vscnprintf
 .text.snprintf
                0x0003d348       0x28 lib/built-in.o
                0x0003d348                snprintf
 .text.vsprintf
                0x0003d370       0x10 lib/built-in.o
                0x0003d370                vsprintf
 .text.sprintf  0x0003d380       0x28 lib/built-in.o
                0x0003d380                sprintf
 .text.printf   0x0003d3a8       0x48 lib/built-in.o
                0x0003d3a8                printf
 .text.vprintf  0x0003d3f0       0x34 lib/built-in.o
                0x0003d3f0                vprintf
 .text.simple_itoa
                0x0003d424       0x58 lib/built-in.o
                0x0003d424                simple_itoa
 .text.panic_finish
                0x0003d47c       0x30 lib/built-in.o
 .text.panic    0x0003d4ac       0x1c lib/built-in.o
                0x0003d4ac                panic
 .text.simple_strtoul
                0x0003d4c8       0xb4 lib/built-in.o
                0x0003d4c8                simple_strtoul
 .text.strict_strtoul
                0x0003d57c       0x78 lib/built-in.o
                0x0003d57c                strict_strtoul
 .text.simple_strtol
                0x0003d5f4       0x24 lib/built-in.o
                0x0003d5f4                simple_strtol
 .text.ustrtoul
                0x0003d618       0x70 lib/built-in.o
                0x0003d618                ustrtoul
 .text.simple_strtoull
                0x0003d688       0xd8 lib/built-in.o
                0x0003d688                simple_strtoull
 .text.ustrtoull
                0x0003d760       0x88 lib/built-in.o
                0x0003d760                ustrtoull
 .text.trailing_strtoln
                0x0003d7e8       0x70 lib/built-in.o
                0x0003d7e8                trailing_strtoln
 .text.trailing_strtol
                0x0003d858        0x8 lib/built-in.o
                0x0003d858                trailing_strtol
 .text.compute_ip_checksum
                0x0003d860       0x64 net/built-in.o
                0x0003d860                compute_ip_checksum
 .text.ip_checksum_ok
                0x0003d8c4       0x1c net/built-in.o
                0x0003d8c4                ip_checksum_ok
 .text.arp_init
                0x0003d8e0       0x50 net/built-in.o
                0x0003d8e0                arp_init
 .text.arp_raw_request
                0x0003d930       0xc0 net/built-in.o
                0x0003d930                arp_raw_request
 .text.arp_request
                0x0003d9f0       0x84 net/built-in.o
                0x0003d9f0                arp_request
 .text.arp_timeout_check
                0x0003da74       0x90 net/built-in.o
                0x0003da74                arp_timeout_check
 .text.arp_receive
                0x0003db04      0x214 net/built-in.o
                0x0003db04                arp_receive
 .text.dhcp_extended
                0x0003dd18      0x254 net/built-in.o
 .text.dhcp_process_options
                0x0003df6c      0x1f8 net/built-in.o
 .text.dhcp_packet_process_options
                0x0003e164       0x84 net/built-in.o
 .text.dhcp_handler
                0x0003e1e8      0x3f4 net/built-in.o
 .text.bootp_reset
                0x0003e5dc       0x44 net/built-in.o
                0x0003e5dc                bootp_reset
 .text.bootp_request
                0x0003e620      0x294 net/built-in.o
                0x0003e620                bootp_request
 .text.bootp_timeout_handler
                0x0003e8b4       0x70 net/built-in.o
 .text.dhcp_request
                0x0003e924        0x4 net/built-in.o
                0x0003e924                dhcp_request
 .text.__def_eth_init
                0x0003e928        0x8 net/built-in.o
                0x0003e928                cpu_eth_init
                0x0003e928                board_eth_init
 .text.eth_set_current_to_next
                0x0003e930       0x18 net/built-in.o
                0x0003e930                eth_set_current_to_next
 .text.eth_set_dev
                0x0003e948       0x10 net/built-in.o
                0x0003e948                eth_set_dev
 .text.eth_get_dev_by_name
                0x0003e958       0x80 net/built-in.o
                0x0003e958                eth_get_dev_by_name
 .text.eth_get_dev_by_index
                0x0003e9d8       0x38 net/built-in.o
                0x0003e9d8                eth_get_dev_by_index
 .text.eth_get_dev_index
                0x0003ea10       0x1c net/built-in.o
                0x0003ea10                eth_get_dev_index
 .text.eth_write_hwaddr
                0x0003ea2c      0x1e4 net/built-in.o
                0x0003ea2c                eth_write_hwaddr
 .text.on_ethaddr
                0x0003ec10       0xa8 net/built-in.o
 .text.eth_register
                0x0003ecb8       0x7c net/built-in.o
                0x0003ecb8                eth_register
 .text.eth_unregister
                0x0003ed34       0x98 net/built-in.o
                0x0003ed34                eth_unregister
 .text.eth_initialize
                0x0003edcc      0x18c net/built-in.o
                0x0003edcc                eth_initialize
 .text.eth_init
                0x0003ef58       0x74 net/built-in.o
                0x0003ef58                eth_init
 .text.eth_halt
                0x0003efcc       0x30 net/built-in.o
                0x0003efcc                eth_halt
 .text.eth_send
                0x0003effc       0x3c net/built-in.o
                0x0003effc                eth_send
 .text.eth_rx   0x0003f038       0x24 net/built-in.o
                0x0003f038                eth_rx
 .text.eth_parse_enetaddr
                0x0003f05c       0x5c net/built-in.o
                0x0003f05c                eth_parse_enetaddr
 .text.eth_getenv_enetaddr
                0x0003f0b8       0x5c net/built-in.o
                0x0003f0b8                eth_getenv_enetaddr
 .text.eth_setenv_enetaddr
                0x0003f114       0x34 net/built-in.o
                0x0003f114                eth_setenv_enetaddr
 .text.eth_getenv_enetaddr_by_index
                0x0003f148       0x4c net/built-in.o
                0x0003f148                eth_getenv_enetaddr_by_index
 .text.eth_setenv_enetaddr_by_index
                0x0003f194       0x4c net/built-in.o
                0x0003f194                eth_setenv_enetaddr_by_index
 .text.eth_common_init
                0x0003f1e0       0x14 net/built-in.o
                0x0003f1e0                eth_common_init
 .text.eth_mac_skip
                0x0003f1f4       0x40 net/built-in.o
                0x0003f1f4                eth_mac_skip
 .text.eth_get_name
                0x0003f234       0x20 net/built-in.o
                0x0003f234                eth_get_name
 .text.eth_current_changed
                0x0003f254       0x98 net/built-in.o
                0x0003f254                eth_current_changed
 .text.eth_try_another
                0x0003f2ec       0x88 net/built-in.o
                0x0003f2ec                eth_try_another
 .text.eth_set_current
                0x0003f374       0x90 net/built-in.o
                0x0003f374                eth_set_current
 .text.net_clear_handlers
                0x0003f404       0x34 net/built-in.o
 .text.start_again_timeout_handler
                0x0003f438       0x14 net/built-in.o
 .text.dummy_handler
                0x0003f44c        0x4 net/built-in.o
 .text.on_ipaddr
                0x0003f450       0x30 net/built-in.o
 .text.on_gatewayip
                0x0003f480       0x30 net/built-in.o
 .text.on_netmask
                0x0003f4b0       0x30 net/built-in.o
 .text.on_serverip
                0x0003f4e0       0x30 net/built-in.o
 .text.net_init_loop
                0x0003f510       0x28 net/built-in.o
 .text.net_auto_load
                0x0003f538       0x64 net/built-in.o
                0x0003f538                net_auto_load
 .text.net_init
                0x0003f59c       0x70 net/built-in.o
                0x0003f59c                net_init
 .text.net_start_again
                0x0003f60c      0x168 net/built-in.o
                0x0003f60c                net_start_again
 .text.net_loop
                0x0003f774      0x394 net/built-in.o
                0x0003f774                net_loop
 .text.net_set_udp_handler
                0x0003fb08       0x20 net/built-in.o
                0x0003fb08                net_set_udp_handler
 .text.net_get_arp_handler
                0x0003fb28       0x10 net/built-in.o
                0x0003fb28                net_get_arp_handler
 .text.net_set_timeout_handler
                0x0003fb38       0x5c net/built-in.o
                0x0003fb38                net_set_timeout_handler
 .text.net_process_received_packet
                0x0003fb94      0x2cc net/built-in.o
                0x0003fb94                net_process_received_packet
 .text.net_eth_hdr_size
                0x0003fe60       0x3c net/built-in.o
                0x0003fe60                net_eth_hdr_size
 .text.net_set_ether
                0x0003fe9c       0xa4 net/built-in.o
                0x0003fe9c                net_set_ether
 .text.net_update_ether
                0x0003ff40       0x88 net/built-in.o
                0x0003ff40                net_update_ether
 .text.net_set_ip_header
                0x0003ffc8       0x90 net/built-in.o
                0x0003ffc8                net_set_ip_header
 .text.net_set_udp_header
                0x00040058       0x84 net/built-in.o
                0x00040058                net_set_udp_header
 .text.net_send_udp_packet
                0x000400dc      0x108 net/built-in.o
                0x000400dc                net_send_udp_packet
 .text.copy_filename
                0x000401e4       0x44 net/built-in.o
                0x000401e4                copy_filename
 .text.on_bootfile
                0x00040228       0x3c net/built-in.o
 .text.ip_to_string
                0x00040264       0x3c net/built-in.o
                0x00040264                ip_to_string
 .text.string_to_vlan
                0x000402a0       0x50 net/built-in.o
                0x000402a0                string_to_vlan
 .text.on_nvlan
                0x000402f0       0x30 net/built-in.o
 .text.on_vlan  0x00040320       0x30 net/built-in.o
 .text.rpc_lookup_reply
                0x00040350       0xb8 net/built-in.o
 .text.nfs_mount_reply
                0x00040408       0xac net/built-in.o
 .text.nfs_umountall_reply
                0x000404b4       0x9c net/built-in.o
 .text.nfs_lookup_reply
                0x00040550      0x11c net/built-in.o
 .text.nfs3_get_attributes_offset
                0x0004066c       0x14 net/built-in.o
 .text.nfs_readlink_reply
                0x00040680      0x124 net/built-in.o
 .text.basename
                0x000407a4       0x3c net/built-in.o
 .text.rpc_req  0x000407e0      0x124 net/built-in.o
 .text.nfs_umountall_req
                0x00040904       0x84 net/built-in.o
 .text.nfs_read_reply.isra.0
                0x00040988      0x168 net/built-in.o
 .text.nfs_mount_req
                0x00040af0       0xbc net/built-in.o
 .text.nfs_readlink_req
                0x00040bac       0xc8 net/built-in.o
 .text.nfs_lookup_req
                0x00040c74      0x18c net/built-in.o
 .text.nfs_read_req
                0x00040e00       0xf4 net/built-in.o
 .text.nfs_send
                0x00040ef4      0x154 net/built-in.o
 .text.nfs_handler
                0x00041048      0x23c net/built-in.o
 .text.nfs_timeout_handler
                0x00041284       0x64 net/built-in.o
 .text.nfs_start
                0x000412e8      0x170 net/built-in.o
                0x000412e8                nfs_start
 .text.ping_timeout_handler
                0x00041458       0x1c net/built-in.o
 .text.ping_start
                0x00041474      0x11c net/built-in.o
                0x00041474                ping_start
 .text.ping_receive
                0x00041590       0xe0 net/built-in.o
                0x00041590                ping_receive
 .text.tftp_send
                0x00041670      0x200 net/built-in.o
 .text.tftp_handler
                0x00041870      0x4a0 net/built-in.o
 .text.tftp_timeout_handler
                0x00041d10       0x88 net/built-in.o
 .text.tftp_start
                0x00041d98      0x3a0 net/built-in.o
                0x00041d98                tftp_start
 .text.do_dm_dump_devres
                0x00042138        0x8 test/dm/built-in.o
 .text.do_dm    0x00042140       0x74 test/dm/built-in.o
 .text.do_dm_dump_uclass
                0x000421b4       0x10 test/dm/built-in.o
 .text.do_dm_dump_all
                0x000421c4       0x10 test/dm/built-in.o
 .text.__ashldi3
                0x000421d4       0x1c arch/arm/lib/lib.a(ashldi3.o)
                0x000421d4                __ashldi3
                0x000421d4                __aeabi_llsl
 .text.__udivsi3
                0x000421f0       0x9c arch/arm/lib/lib.a(lib1funcs.o)
                0x000421f0                __udivsi3
                0x000421f0                __aeabi_uidiv
 .text.__divsi3
                0x0004228c       0xcc arch/arm/lib/lib.a(lib1funcs.o)
                0x0004228c                __aeabi_idiv
                0x0004228c                __divsi3
 .text.__aeabi_uidivmod
                0x00042358       0x30 arch/arm/lib/lib.a(lib1funcs.o)
                0x00042358                __aeabi_uidivmod
                0x00042370                __aeabi_idivmod
 .text.Ldiv0    0x00042388       0x10 arch/arm/lib/lib.a(lib1funcs.o)
 .text.__lshldi3
                0x00042398       0x1c arch/arm/lib/lib.a(lshrdi3.o)
                0x00042398                __aeabi_llsr
                0x00042398                __lshrdi3
 .text.__div0   0x000423b4        0x4 arch/arm/lib/lib.a(div0.o)
                0x000423b4                __div0

.glue_7         0x000423b8        0x0
 .glue_7        0x000423b8        0x0 linker stubs

.glue_7t        0x000423b8        0x0
 .glue_7t       0x000423b8        0x0 linker stubs

.vfp11_veneer   0x000423b8        0x0
 .vfp11_veneer  0x000423b8        0x0 linker stubs

.v4_bx          0x000423b8        0x0
 .v4_bx         0x000423b8        0x0 linker stubs

.iplt           0x000423b8        0x0
 .iplt          0x000423b8        0x0 arch/arm/cpu/armv7/start.o
                0x000423b8                . = ALIGN (0x4)

.rodata         0x000423b8     0xf5b7
 *(SORT(.rodata*))
 .rodata.efi_boot_services
                0x000423b8       0xc8 lib/built-in.o
 .rodata        0x00042480       0x80 arch/arm/lib/built-in.o
 .rodata.CSWTCH.28
                0x00042500       0x20 common/built-in.o
 .rodata.CSWTCH.30
                0x00042520       0x14 cmd/built-in.o
 .rodata.CSWTCH.46
                0x00042534       0x20 disk/built-in.o
 .rodata.bcm2835_gpio_id
                0x00042554       0x10 drivers/gpio/built-in.o
 .rodata.bcm2835_ops
                0x00042564       0x18 drivers/mmc/built-in.o
 .rodata.bcm283x_mu_serial_id
                0x0004257c       0x10 drivers/serial/built-in.o
 .rodata.bcm283x_mu_serial_ops
                0x0004258c       0x14 drivers/serial/built-in.o
 .rodata.boot_os
                0x000425a0       0x60 common/built-in.o
 .rodata.crc_table
                0x00042600      0x400 lib/built-in.o
 .rodata.desc_and_len_tbl
                0x00042a00       0x30 cmd/built-in.o
 .rodata.dwc2_eptype
                0x00042a30       0x10 drivers/usb/host/built-in.o
 .rodata.efi_con_in
                0x00042a40        0xc lib/built-in.o
                0x00042a40                efi_con_in
 .rodata.efi_con_out
                0x00042a4c       0x28 lib/built-in.o
                0x00042a4c                efi_con_out
 .rodata.efi_console_control
                0x00042a74        0xc lib/built-in.o
                0x00042a74                efi_console_control
 .rodata.efi_runtime_detach_list
                0x00042a80       0x38 lib/built-in.o
 .rodata.env_flags_varaccess_mask
                0x00042ab8       0x10 common/built-in.o
 .rodata.ext_csd_bits.9387
                0x00042ac8       0x14 drivers/mmc/built-in.o
 .rodata.ext_to_hostcaps.9388
                0x00042adc       0x1c drivers/mmc/built-in.o
 .rodata.fbase  0x00042af8       0x10 drivers/mmc/built-in.o
 .rodata.fdt_errtable
                0x00042b08       0x48 lib/built-in.o
 .rodata.generic_simple_bus_ids
                0x00042b50       0x18 drivers/built-in.o
 .rodata.gpio_bcm2835_ops
                0x00042b68       0x28 drivers/gpio/built-in.o
 .rodata.gpio_function
                0x00042b90       0x14 drivers/gpio/built-in.o
 .rodata.keywords
                0x00042ba4       0x98 cmd/built-in.o
 .rodata.op_adv
                0x00042c3c      0x100 cmd/built-in.o
                0x00042c3c                op_adv
 .rodata.op_table
                0x00042d3c       0x68 cmd/built-in.o
 .rodata.prob_dev
                0x00042da4       0x18 drivers/usb/eth/built-in.o
 .rodata.reg_0_5_desc_tbl
                0x00042dbc       0x30 cmd/built-in.o
 .rodata.reg_0_desc_tbl
                0x00042dec       0x78 cmd/built-in.o
 .rodata.reg_1_desc_tbl
                0x00042e64       0xc0 cmd/built-in.o
 .rodata.reg_2_desc_tbl
                0x00042f24        0xc cmd/built-in.o
 .rodata.reg_3_desc_tbl
                0x00042f30       0x24 cmd/built-in.o
 .rodata.reg_4_desc_tbl
                0x00042f54       0x90 cmd/built-in.o
 .rodata.reg_5_desc_tbl
                0x00042fe4       0x90 cmd/built-in.o
 .rodata.root_info
                0x00043074        0x8 drivers/built-in.o
 .rodata.rpi_model_unknown
                0x0004307c        0xc board/raspberrypi/rpi/built-in.o
 .rodata.rpi_models_new_scheme
                0x00043088       0x78 board/raspberrypi/rpi/built-in.o
 .rodata.rpi_models_old_scheme
                0x00043100      0x108 board/raspberrypi/rpi/built-in.o
 .rodata.sd_au_size
                0x00043208       0x40 drivers/mmc/built-in.o
 .rodata.sdhci_ops
                0x00043248       0x14 drivers/mmc/built-in.o
 .rodata.smbios_write_funcs
                0x0004325c       0x1c lib/built-in.o
 .rodata.uimage_arch
                0x00043278      0x138 common/built-in.o
 .rodata.uimage_comp
                0x000433b0       0x54 common/built-in.o
 .rodata.uimage_os
                0x00043404       0x78 common/built-in.o
 .rodata.uimage_type
                0x0004347c      0x180 common/built-in.o
 .rodata.widths.9389
                0x000435fc       0x14 drivers/mmc/built-in.o
 .rodata.crc16_tab
                0x00043610      0x200 lib/built-in.o
 .rodata.dbase.7371
                0x00043810       0x40 lib/built-in.o
 .rodata.dext.7372
                0x00043850       0x40 lib/built-in.o
 .rodata.distfix
                0x00043890       0x80 lib/built-in.o
 .rodata.lbase.7369
                0x00043910       0x3e lib/built-in.o
 .rodata.lenfix
                0x0004394e      0x800 lib/built-in.o
 .rodata.lext.7370
                0x0004414e       0x3e lib/built-in.o
 .rodata.order.7465
                0x0004418c       0x26 lib/built-in.o
 .rodata.smsc95xx_dongles
                0x000441b2       0x18 drivers/usb/eth/built-in.o
 .rodata        0x000441ca       0x18 cmd/built-in.o
 .rodata        0x000441e2        0x3 common/built-in.o
 .rodata        0x000441e5       0x20 lib/built-in.o
 .rodata        0x00044205        0x7 net/built-in.o
 .rodata.CSWTCH.66
                0x0004420c       0x16 common/built-in.o
 .rodata.__FUNCTION__.7556
                0x00044222       0x14 net/built-in.o
 .rodata.__FUNCTION__.8740
                0x00044236       0x17 common/built-in.o
 .rodata.__FUNCTION__.8886
                0x0004424d       0x17 common/built-in.o
 .rodata.__func__.7188
                0x00044264        0xf disk/built-in.o
 .rodata.__func__.7200
                0x00044273       0x12 disk/built-in.o
 .rodata.__func__.7210
                0x00044285       0x10 common/built-in.o
 .rodata.__func__.7226
                0x00044295        0xb common/built-in.o
 .rodata.__func__.7233
                0x000442a0        0xb common/built-in.o
 .rodata.__func__.7314
                0x000442ab        0xf fs/built-in.o
 .rodata.__func__.7329
                0x000442ba        0xd disk/built-in.o
 .rodata.__func__.7338
                0x000442c7       0x17 disk/built-in.o
 .rodata.__func__.7343
                0x000442de        0xd disk/built-in.o
 .rodata.__func__.7656
                0x000442eb        0xe cmd/built-in.o
 .rodata.__func__.7663
                0x000442f9        0xc drivers/mmc/built-in.o
 .rodata.__func__.7693
                0x00044305        0xe cmd/built-in.o
 .rodata.__func__.7694
                0x00044313       0x14 drivers/mmc/built-in.o
 .rodata.__func__.7716
                0x00044327       0x13 drivers/mmc/built-in.o
 .rodata.__func__.7731
                0x0004433a       0x10 drivers/mmc/built-in.o
 .rodata.__func__.7767
                0x0004434a        0xb drivers/mmc/built-in.o
 .rodata.__func__.7781
                0x00044355       0x10 drivers/mmc/built-in.o
 .rodata.__func__.7788
                0x00044365        0xa drivers/mmc/built-in.o
 .rodata.__func__.7831
                0x0004436f        0xc lib/built-in.o
 .rodata.__func__.7931
                0x0004437b        0xe common/built-in.o
 .rodata.__func__.8617
                0x00044389       0x18 common/built-in.o
 .rodata.__func__.8824
                0x000443a1        0xe drivers/built-in.o
 .rodata.__func__.9305
                0x000443af        0xd drivers/built-in.o
 .rodata.__func__.9311
                0x000443bc       0x11 drivers/built-in.o
 .rodata.__func__.9319
                0x000443cd       0x18 drivers/built-in.o
 .rodata.__func__.9323
                0x000443e5        0xd drivers/built-in.o
 .rodata.__func__.9327
                0x000443f2       0x14 drivers/built-in.o
 .rodata.__func__.9663
                0x00044406       0x16 drivers/usb/host/built-in.o
 .rodata.__func__.9670
                0x0004441c       0x16 drivers/usb/host/built-in.o
 .rodata.__func__.9675
                0x00044432       0x13 drivers/usb/host/built-in.o
 .rodata.__func__.9702
                0x00044445       0x17 drivers/usb/host/built-in.o
 .rodata._ctype
                0x0004445c      0x100 lib/built-in.o
                0x0004445c                _ctype
 .rodata._do_env_set.isra.0.str1.1
                0x0004455c       0x7c cmd/built-in.o
 .rodata._do_help.str1.1
                0x000445d8       0x5f common/built-in.o
 .rodata._submit_int_msg.str1.1
                0x00044637       0x24 drivers/usb/host/built-in.o
 .rodata.add_sdhci.str1.1
                0x0004465b       0x16 drivers/mmc/built-in.o
 .rodata.announce_dram_init.str1.1
                0x00044671        0x8 common/built-in.o
 .rodata.arp_receive.str1.1
                0x00044679       0x14 net/built-in.o
 .rodata.arp_request.str1.1
                0x0004468d       0x2a net/built-in.o
 .rodata.arp_timeout_check.str1.1
                0x000446b7       0x2b net/built-in.o
 .rodata.autoboot_command.str1.1
                0x000446e2       0x31 common/built-in.o
 .rodata.b_addqchr.str1.1
                0x00044713        0x5 common/built-in.o
 .rodata.bad_mode.str1.1
                0x00044718       0x13 arch/arm/lib/built-in.o
 .rodata.bcm2835_gpio_probe.str1.1
                0x0004472b        0x5 drivers/gpio/built-in.o
 .rodata.bcm2835_mbox_call_prop.str1.1
                0x00044730       0x6f arch/arm/mach-bcm283x/built-in.o
 .rodata.bcm2835_mbox_call_raw.str1.1
                0x0004479f       0xb3 arch/arm/mach-bcm283x/built-in.o
 .rodata.bcm2835_sdhci_init.str1.1
                0x00044852       0x27 drivers/mmc/built-in.o
 .rodata.bcm283x_mu_serial_ofdata_to_platdata.str1.1
                0x00044879       0x10 drivers/serial/built-in.o
 .rodata.binary_test.str1.1
                0x00044889       0x17 cmd/built-in.o
 .rodata.blk_get_device_by_str.str1.1
                0x000448a0       0x6a disk/built-in.o
 .rodata.blk_get_device_part_str.str1.1
                0x0004490a      0x112 disk/built-in.o
                                0x11b (size before relaxing)
 .rodata.board_init.str1.1
                0x00044a1c       0x7e board/raspberrypi/rpi/built-in.o
 .rodata.board_mmc_init.str1.1
                0x00044a9a       0x2a board/raspberrypi/rpi/built-in.o
 .rodata.boot_fdt_add_mem_rsv_regions.str1.1
                0x00044ac4       0x35 common/built-in.o
 .rodata.boot_get_fdt.str1.1
                0x00044af9      0x1b5 common/built-in.o
                                0x1d0 (size before relaxing)
 .rodata.boot_get_ramdisk.str1.1
                0x00044cae       0xb7 common/built-in.o
                                0x10d (size before relaxing)
 .rodata.boot_jump_linux.str1.1
                0x00044d65       0x5c arch/arm/lib/built-in.o
                                 0x5d (size before relaxing)
 .rodata.boot_prep_linux.str1.1
                0x00044dc1       0x20 arch/arm/lib/built-in.o
                                 0x29 (size before relaxing)
 .rodata.boot_prep_vxworks.str1.1
                0x00044de1       0x2a arch/arm/lib/built-in.o
 .rodata.boot_ramdisk_high.str1.1
                0x00044e0b       0x54 common/built-in.o
 .rodata.boot_relocate_fdt.str1.1
                0x00044e5f       0xcf common/built-in.o
                                 0xd3 (size before relaxing)
 .rodata.bootdelay_process.str1.1
                0x00044f2e       0x3a common/built-in.o
                                 0x42 (size before relaxing)
 .rodata.bootm_decomp_image.str1.1
                0x00044f68       0x99 common/built-in.o
                                 0xc0 (size before relaxing)
 .rodata.bootm_find_images.str1.1
                0x00045001       0x49 common/built-in.o
 .rodata.bootm_maybe_autostart.str1.1
                0x0004504a       0x3b cmd/built-in.o
 .rodata.bootp_request.str1.1
                0x00045085       0x25 net/built-in.o
 .rodata.bootp_timeout_handler.str1.1
                0x000450aa       0x26 net/built-in.o
 .rodata.bootz_setup.str1.1
                0x000450d0       0x48 arch/arm/lib/built-in.o
 .rodata.check_cache_range.str1.1
                0x00045118       0x35 arch/arm/lib/built-in.o
 .rodata.check_reserved.str1.1
                0x0004514d       0x27 drivers/gpio/built-in.o
                                 0x28 (size before relaxing)
 .rodata.cli_process_fdt.str1.1
                0x00045174        0xb common/built-in.o
                                 0x13 (size before relaxing)
 .rodata.cli_readline_into_buffer.str1.1
                0x0004517f        0x7 common/built-in.o
                                  0x8 (size before relaxing)
 .rodata.cli_secure_boot_cmd.str1.1
                0x00045186       0x50 common/built-in.o
 .rodata.cmd_auto_complete.str1.1
                0x000451d6       0x5f common/built-in.o
                                 0x14 (size before relaxing)
 .rodata.cmd_process.str1.1
                0x000451d6       0x3f common/built-in.o
 .rodata.cmd_process_error.str1.1
                0x00045215       0x1f common/built-in.o
 .rodata.cmd_usage.str1.1
                0x00045234       0x36 common/built-in.o
 .rodata.common_diskboot.str1.1
                0x0004526a       0x8f cmd/built-in.o
 .rodata.compat.7851
                0x000452f9       0x13 common/built-in.o
 .rodata.compile.str1.1
                0x0004530c       0x4a lib/built-in.o
 .rodata.console_init_r.str1.1
                0x00045356        0x7 common/built-in.o
 .rodata.cread_add_char.str1.1
                0x00045356        0x5 common/built-in.o
 .rodata.default_environment
                0x0004535b      0xe71 common/built-in.o
                0x0004535b                default_environment
 .rodata.dev_get_addr_index.str1.1
                0x000461cc        0x4 drivers/built-in.o
 .rodata.dev_get_platdata.str1.1
                0x000461cc       0x11 drivers/built-in.o
 .rodata.dev_print.str1.1
                0x000461dd      0x14d disk/built-in.o
                                0x15e (size before relaxing)
 .rodata.device_bind_common.isra.0.str1.1
                0x0004632a       0x5b drivers/built-in.o
 .rodata.device_probe.str1.1
                0x00046385       0x30 drivers/built-in.o
 .rodata.device_remove.str1.1
                0x000463b5       0x98 drivers/built-in.o
 .rodata.dhcp_extended.str1.1
                0x0004644d       0x37 net/built-in.o
                                 0x3f (size before relaxing)
 .rodata.dhcp_handler.str1.1
                0x00046484       0x41 net/built-in.o
                                 0x4a (size before relaxing)
 .rodata.dhcp_process_options.str1.1
                0x000464c5       0x78 net/built-in.o
 .rodata.digits.7026
                0x0004653d       0x10 lib/built-in.o
 .rodata.disabled.7852
                0x0004654d        0x9 common/built-in.o
 .rodata.disk_write.str1.1
                0x00046556       0x18 fs/built-in.o
 .rodata.display_options.str1.1
                0x0004656e        0x7 lib/built-in.o
 .rodata.dm_dump_all.str1.1
                0x00046575       0x1c drivers/built-in.o
                                 0x46 (size before relaxing)
 .rodata.dm_dump_uclass.str1.1
                0x00046591       0x32 drivers/built-in.o
                                 0x34 (size before relaxing)
 .rodata.dm_gpio_get_value.str1.1
                0x000465c3        0xa drivers/gpio/built-in.o
 .rodata.dm_gpio_set_value.str1.1
                0x000465cd        0xa drivers/gpio/built-in.o
 .rodata.dm_init.str1.1
                0x000465d7       0x25 drivers/built-in.o
 .rodata.dm_root.str1.1
                0x000465fc       0x25 drivers/built-in.o
 .rodata.dm_scan_fdt_node.str1.1
                0x00046621       0x31 drivers/built-in.o
 .rodata.dm_scan_platdata.str1.1
                0x00046652       0x1d drivers/built-in.o
 .rodata.do_bdinfo.str1.1
                0x0004666f       0xfc cmd/built-in.o
                                0x104 (size before relaxing)
 .rodata.do_bootd.str1.1
                0x0004676b        0x8 cmd/built-in.o
 .rodata.do_bootefi.str1.1
                0x00046773       0x4d cmd/built-in.o
 .rodata.do_bootefi_exec.str1.1
                0x000467c0       0x59 cmd/built-in.o
 .rodata.do_bootelf.str1.1
                0x00046819       0x52 cmd/built-in.o
                                 0x5c (size before relaxing)
 .rodata.do_bootm.str1.1
                0x0004686b       0x2a cmd/built-in.o
 .rodata.do_bootm_netbsd.str1.1
                0x00046895       0x49 common/built-in.o
                                 0x4a (size before relaxing)
 .rodata.do_bootm_plan9.str1.1
                0x000468de       0x43 common/built-in.o
                                 0x4c (size before relaxing)
 .rodata.do_bootm_qnxelf.str1.1
                0x00046921        0x4 common/built-in.o
 .rodata.do_bootm_rtems.str1.1
                0x00046921       0x39 common/built-in.o
 .rodata.do_bootm_standalone.str1.1
                0x0004695a       0x16 common/built-in.o
 .rodata.do_bootm_states.str1.1
                0x0004695a      0x1e6 common/built-in.o
                                0x25e (size before relaxing)
 .rodata.do_bootvx.str1.1
                0x00046b40      0x1be cmd/built-in.o
                                0x1d0 (size before relaxing)
 .rodata.do_bootvx_fdt.str1.1
                0x00046cfe       0x57 common/built-in.o
                                 0x75 (size before relaxing)
 .rodata.do_coninfo.str1.1
                0x00046d55       0x2c cmd/built-in.o
                                 0x30 (size before relaxing)
 .rodata.do_data_abort.str1.1
                0x00046d81        0xc arch/arm/lib/built-in.o
 .rodata.do_echo.str1.1
                0x00046d8d        0x3 cmd/built-in.o
 .rodata.do_env_default.str1.1
                0x00046d90       0x25 cmd/built-in.o
 .rodata.do_env_edit.part.2.str1.1
                0x00046db5        0x7 cmd/built-in.o
                                  0xa (size before relaxing)
 .rodata.do_env_export.str1.1
                0x00046dbc       0x41 cmd/built-in.o
                                 0x4a (size before relaxing)
 .rodata.do_env_import.str1.1
                0x00046dfd      0x152 cmd/built-in.o
 .rodata.do_env_print.str1.1
                0x00046f4f       0x3d cmd/built-in.o
 .rodata.do_env_save.str1.1
                0x00046f8c       0x1d cmd/built-in.o
 .rodata.do_fat_fsinfo.str1.1
                0x00046fa9       0x56 cmd/built-in.o
 .rodata.do_fat_fswrite.str1.1
                0x00046fff       0x6b cmd/built-in.o
 .rodata.do_fat_read_at.str1.1
                0x0004706a       0x82 fs/built-in.o
                                 0x83 (size before relaxing)
 .rodata.do_fat_write.str1.1
                0x000470ec       0xc3 fs/built-in.o
 .rodata.do_fdt.str1.1
                0x000471af      0x49a cmd/built-in.o
                                0x4c4 (size before relaxing)
 .rodata.do_fiq.str1.1
                0x00047649       0x18 arch/arm/lib/built-in.o
 .rodata.do_fixup_by_path.str1.1
                0x00047661       0x29 common/built-in.o
 .rodata.do_fs_uuid.str1.1
                0x0004768a        0x4 fs/built-in.o
 .rodata.do_get_any.str1.1
                0x0004768a        0x5 cmd/built-in.o
 .rodata.do_get_ext2.str1.1
                0x0004768a        0x9 cmd/built-in.o
 .rodata.do_get_fat.str1.1
                0x0004768a        0x8 cmd/built-in.o
 .rodata.do_get_tftp.str1.1
                0x0004768a        0x5 cmd/built-in.o
 .rodata.do_go.str1.1
                0x0004768a       0x4f cmd/built-in.o
 .rodata.do_gpio.str1.1
                0x000476d9       0xc4 cmd/built-in.o
                                 0xd2 (size before relaxing)
 .rodata.do_imgextract.str1.1
                0x0004779d      0x148 cmd/built-in.o
                                0x1ac (size before relaxing)
 .rodata.do_irq.str1.1
                0x000478e5       0x18 arch/arm/lib/built-in.o
                                 0x13 (size before relaxing)
 .rodata.do_itest.str1.1
                0x000478e5       0x1e cmd/built-in.o
 .rodata.do_load.str1.1
                0x00047903       0x39 fs/built-in.o
                                 0x5b (size before relaxing)
 .rodata.do_load_serial.str1.1
                0x0004793c       0x6b cmd/built-in.o
 .rodata.do_load_serial_bin.str1.1
                0x000479a7      0x159 cmd/built-in.o
 .rodata.do_load_wrapper.str1.1
                0x00047b00        0x1 cmd/built-in.o
 .rodata.do_ls.str1.1
                0x00047b00        0x2 fs/built-in.o
 .rodata.do_mem_base.str1.1
                0x00047b00       0x17 cmd/built-in.o
 .rodata.do_mem_cmp.str1.1
                0x00047b17       0x6e cmd/built-in.o
                                 0x73 (size before relaxing)
 .rodata.do_mem_cp.str1.1
                0x00047b85       0x11 cmd/built-in.o
 .rodata.do_mem_crc.str1.1
                0x00047b96        0x6 cmd/built-in.o
 .rodata.do_mii.str1.1
                0x00047b9c      0x297 cmd/built-in.o
                                0x2b0 (size before relaxing)
 .rodata.do_mmc_dev.str1.1
                0x00047e33       0x89 cmd/built-in.o
 .rodata.do_mmc_erase.str1.1
                0x00047ebc       0x67 cmd/built-in.o
 .rodata.do_mmc_hwpartition.str1.1
                0x00047f23      0x126 cmd/built-in.o
                                0x142 (size before relaxing)
 .rodata.do_mmc_part.str1.1
                0x00048049       0x15 cmd/built-in.o
 .rodata.do_mmc_read.str1.1
                0x0004805e       0x43 cmd/built-in.o
 .rodata.do_mmc_setdsr.str1.1
                0x000480a1       0x1d cmd/built-in.o
 .rodata.do_mmc_write.str1.1
                0x000480be       0x47 cmd/built-in.o
 .rodata.do_mmcinfo.str1.1
                0x00048105      0x107 cmd/built-in.o
                                0x159 (size before relaxing)
 .rodata.do_mmcops.str1.1
                0x0004820c       0x19 cmd/built-in.o
 .rodata.do_not_used.str1.1
                0x00048225        0xa arch/arm/lib/built-in.o
 .rodata.do_part.str1.1
                0x0004822f       0x16 cmd/built-in.o
                                 0x15 (size before relaxing)
 .rodata.do_part_list.str1.1
                0x0004822f       0x22 cmd/built-in.o
                                 0x25 (size before relaxing)
 .rodata.do_part_start.str1.1
                0x00048251        0x4 cmd/built-in.o
                                  0x8 (size before relaxing)
 .rodata.do_ping.str1.1
                0x00048255       0x35 cmd/built-in.o
 .rodata.do_prefetch_abort.str1.1
                0x0004828a       0x10 arch/arm/lib/built-in.o
 .rodata.do_pxe_boot.str1.1
                0x0004829a       0x38 cmd/built-in.o
 .rodata.do_pxe_get.str1.1
                0x000482d2       0x41 cmd/built-in.o
                                 0x46 (size before relaxing)
 .rodata.do_reset.str1.1
                0x00048313        0xf arch/arm/lib/built-in.o
 .rodata.do_run.str1.1
                0x00048322       0x1c common/built-in.o
 .rodata.do_save.str1.1
                0x00048322       0x1d fs/built-in.o
 .rodata.do_setexpr.str1.1
                0x0004833f       0x11 cmd/built-in.o
                                 0x15 (size before relaxing)
 .rodata.do_showvar.str1.1
                0x00048350        0xc common/built-in.o
                                 0x2f (size before relaxing)
 .rodata.do_size.str1.1
                0x0004835c        0x9 fs/built-in.o
 .rodata.do_software_interrupt.str1.1
                0x0004835c       0x14 arch/arm/lib/built-in.o
 .rodata.do_source.str1.1
                0x00048370       0x1e cmd/built-in.o
 .rodata.do_sysboot.str1.1
                0x0004838e       0x43 cmd/built-in.o
 .rodata.do_undefined_instruction.str1.1
                0x000483d1       0x17 arch/arm/lib/built-in.o
 .rodata.do_usb.str1.1
                0x000483e8      0x3b8 cmd/built-in.o
                                0x3eb (size before relaxing)
 .rodata.do_usbboot.str1.1
                0x000487a0        0x4 cmd/built-in.o
 .rodata.do_version.str1.1
                0x000487a4       0x72 cmd/built-in.o
 .rodata.dram_init.str1.1
                0x00048816       0x2a board/raspberrypi/rpi/built-in.o
 .rodata.drv_lcd_init.str1.1
                0x00048840        0x4 common/built-in.o
 .rodata.drv_usb_kbd_init.str1.1
                0x00048844       0x5c common/built-in.o
                                 0x62 (size before relaxing)
 .rodata.dwc_otg_core_reset.str1.1
                0x000488a0        0xe drivers/usb/host/built-in.o
 .rodata.efi_block_io_guid
                0x000488ae       0x10 lib/built-in.o
 .rodata.efi_cout_clear_screen.str1.1
                0x000488be        0x5 lib/built-in.o
 .rodata.efi_cout_enable_cursor.str1.1
                0x000488c3        0x8 lib/built-in.o
 .rodata.efi_cout_query_mode.str1.1
                0x000488cb        0x6 lib/built-in.o
 .rodata.efi_cout_set_cursor_position.str1.1
                0x000488d1        0x9 lib/built-in.o
 .rodata.efi_disk_register.str1.1
                0x000488da       0x2f lib/built-in.o
                                 0x34 (size before relaxing)
 .rodata.efi_gop_guid
                0x00048909       0x10 lib/built-in.o
 .rodata.efi_guid_console_control
                0x00048919       0x10 lib/built-in.o
                0x00048919                efi_guid_console_control
 .rodata.efi_guid_device_path
                0x00048929       0x10 lib/built-in.o
                0x00048929                efi_guid_device_path
 .rodata.efi_guid_loaded_image
                0x00048939       0x10 lib/built-in.o
                0x00048939                efi_guid_loaded_image
 .rodata.efi_load_pe.str1.1
                0x00048949       0xa0 lib/built-in.o
 .rodata.efi_net_guid
                0x000489e9       0x10 lib/built-in.o
 .rodata.efi_pxe_guid
                0x000489f9       0x10 lib/built-in.o
 .rodata.efi_runtime_relocate.str1.1
                0x00048a09       0x34 lib/built-in.o
 .rodata.efi_set_bootdev.str1.1
                0x00048a3d        0x9 cmd/built-in.o
                                 0x15 (size before relaxing)
 .rodata.efi_set_timer.str1.1
                0x00048a46       0x2b lib/built-in.o
 .rodata.emit.str1.1
                0x00048a71       0x1f lib/built-in.o
 .rodata.env_callback_init.str1.1
                0x00048a90        0xb common/built-in.o
 .rodata.env_complete.str1.1
                0x00048a9b        0x7 common/built-in.o
                                  0x4 (size before relaxing)
 .rodata.env_export.str1.1
                0x00048a9b       0x3d common/built-in.o
 .rodata.env_flags_init.str1.1
                0x00048a9b        0x7 common/built-in.o
 .rodata.env_flags_parse_varaccess.str1.1
                0x00048aa2       0x3d common/built-in.o
 .rodata.env_flags_parse_vartype.str1.1
                0x00048adf       0x34 common/built-in.o
 .rodata.env_flags_validate.str1.1
                0x00048b13       0xb2 common/built-in.o
                                 0xb3 (size before relaxing)
 .rodata.env_flags_varaccess_rep
                0x00048bc5        0x5 common/built-in.o
 .rodata.env_flags_vartype_rep
                0x00048bca        0x7 common/built-in.o
 .rodata.env_import.str1.1
                0x00048bd1       0x55 common/built-in.o
 .rodata.env_print.str1.1
                0x00048c26       0x25 cmd/built-in.o
                                 0x2c (size before relaxing)
 .rodata.env_relocate_spec.str1.1
                0x00048c4b       0x5c common/built-in.o
 .rodata.erase_seq
                0x00048ca7        0x4 common/built-in.o
 .rodata.eth_current_changed.str1.1
                0x00048cab       0x11 net/built-in.o
                                 0x14 (size before relaxing)
 .rodata.eth_get_dev_by_name.str1.1
                0x00048cbc       0x33 net/built-in.o
 .rodata.eth_get_name.str1.1
                0x00048cef        0x8 net/built-in.o
 .rodata.eth_getenv_enetaddr_by_index.str1.1
                0x00048cef       0x10 net/built-in.o
 .rodata.eth_initialize.str1.1
                0x00048cff       0x96 net/built-in.o
                                 0xb0 (size before relaxing)
 .rodata.eth_mac_skip.str1.1
                0x00048d95       0x18 net/built-in.o
 .rodata.eth_set_current.str1.1
                0x00048dad        0x9 net/built-in.o
 .rodata.eth_setenv_enetaddr.str1.1
                0x00048dad        0x4 net/built-in.o
 .rodata.eth_write_hwaddr.str1.1
                0x00048db1       0xd4 net/built-in.o
 .rodata.ext4_read_file.str1.1
                0x00048e85       0x19 fs/built-in.o
 .rodata.ext4fs_devread.str1.1
                0x00048e9e       0xa6 fs/built-in.o
 .rodata.ext4fs_iterate_dir.str1.1
                0x00048f44       0x4a fs/built-in.o
 .rodata.ext4fs_ls.str1.1
                0x00048f8e       0x1f fs/built-in.o
 .rodata.ext4fs_mount.str1.1
                0x00048fad       0x24 fs/built-in.o
 .rodata.fat_read_file.str1.1
                0x00048fd1       0x1e fs/built-in.o
 .rodata.fat_set_blk_dev.str1.1
                0x00048fef        0x3 fs/built-in.o
                                  0xd (size before relaxing)
 .rodata.fdt_address_cells.str1.1
                0x00048ff2        0xf lib/built-in.o
 .rodata.fdt_chosen.str1.1
                0x00049001       0x35 common/built-in.o
                                 0x3e (size before relaxing)
 .rodata.fdt_error.str1.1
                0x00049036       0x2d common/built-in.o
 .rodata.fdt_find_or_add_subnode.str1.1
                0x00049063        0xc common/built-in.o
 .rodata.fdt_fixup_ethernet.str1.1
                0x0004906f       0x2e common/built-in.o
                                 0x42 (size before relaxing)
 .rodata.fdt_fixup_memory_banks.str1.1
                0x0004909d       0x85 common/built-in.o
                                 0x94 (size before relaxing)
 .rodata.fdt_get_alias_namelen.str1.1
                0x00049122        0x9 lib/built-in.o
 .rodata.fdt_initrd.str1.1
                0x00049122       0x90 common/built-in.o
                                 0x97 (size before relaxing)
 .rodata.fdt_root.str1.1
                0x000491b2       0x46 common/built-in.o
                                 0x4e (size before relaxing)
 .rodata.fdt_set_node_status.str1.1
                0x000491f8       0x33 common/built-in.o
                                 0x3a (size before relaxing)
 .rodata.fdt_setup_simplefb_node.str1.1
                0x0004922b       0x2c common/built-in.o
 .rodata.fdt_size_cells.str1.1
                0x00049257        0xc lib/built-in.o
 .rodata.fdt_strerror.str1.1
                0x00049257       0x31 lib/built-in.o
 .rodata.fdt_translate_address.str1.1
                0x00049288       0x22 common/built-in.o
 .rodata.fdt_valid.str1.1
                0x000492aa       0x79 cmd/built-in.o
                                 0x7b (size before relaxing)
 .rodata.fdtdec_add_aliases_for_id.str1.1
                0x00049323        0x9 lib/built-in.o
 .rodata.fdtdec_get_chosen_prop.str1.1
                0x00049323        0x8 lib/built-in.o
 .rodata.fdtdec_get_config_int.str1.1
                0x00049323        0x8 lib/built-in.o
 .rodata.fdtdec_get_is_enabled.str1.1
                0x0004932b        0xc lib/built-in.o
 .rodata.fdtdec_prepare_fdt.str1.1
                0x0004932b       0x96 lib/built-in.o
 .rodata.fdtdec_setup.str1.1
                0x000493c1        0xf lib/built-in.o
 .rodata.file_fat_detectfs.str1.1
                0x000493c1       0x64 fs/built-in.o
                                 0x84 (size before relaxing)
 .rodata.file_fat_read_at.str1.1
                0x00049425        0xc fs/built-in.o
 .rodata.file_fat_write.str1.1
                0x00049431       0x40 fs/built-in.o
 .rodata.file_get.str1.1
                0x00049471        0x9 common/built-in.o
                                  0xc (size before relaxing)
 .rodata.find_mmc_device.str1.1
                0x0004947a       0x19 drivers/mmc/built-in.o
 .rodata.flush_dir_table.constprop.8.str1.1
                0x00049493       0x21 fs/built-in.o
 .rodata.format_mac_pxe.constprop.6.str1.1
                0x000494b4       0x21 cmd/built-in.o
                                 0x25 (size before relaxing)
 .rodata.from_env.str1.1
                0x000494d5       0x22 cmd/built-in.o
 .rodata.fs_probe_unsupported.str1.1
                0x000494f7       0x24 fs/built-in.o
 .rodata.fs_read.str1.1
                0x0004951b       0x24 fs/built-in.o
 .rodata.fs_write.str1.1
                0x0004953f       0x1f fs/built-in.o
 .rodata.genimg_get_arch_name.str1.1
                0x0004955e       0x15 common/built-in.o
 .rodata.genimg_get_comp_name.str1.1
                0x00049573       0x14 common/built-in.o
 .rodata.genimg_get_os_name.str1.1
                0x00049587        0xb common/built-in.o
 .rodata.genimg_get_type_name.str1.1
                0x00049592        0xe common/built-in.o
 .rodata.genimg_print_size.str1.1
                0x000495a0        0xc common/built-in.o
                                  0xe (size before relaxing)
 .rodata.get_cluster.str1.1
                0x000495ac       0x25 fs/built-in.o
 .rodata.get_descriptor_len.str1.1
                0x000495d1       0x64 common/built-in.o
 .rodata.get_fatent.str1.1
                0x00049635       0x22 fs/built-in.o
 .rodata.get_local_var.str1.1
                0x00049657        0x3 common/built-in.o
 .rodata.get_pxe_file.str1.1
                0x0004965a        0x9 cmd/built-in.o
 .rodata.get_pxelinux_path.str1.1
                0x0004965a       0x3e cmd/built-in.o
 .rodata.get_relfile.str1.1
                0x00049698       0x56 cmd/built-in.o
                                 0x63 (size before relaxing)
 .rodata.get_vfatname.str1.1
                0x000496ee       0x13 fs/built-in.o
 .rodata.getenv_bootm_low.str1.1
                0x00049701        0xa common/built-in.o
 .rodata.getenv_bootm_mapsize.str1.1
                0x0004970b        0xe common/built-in.o
 .rodata.getenv_bootm_size.str1.1
                0x00049719        0xb common/built-in.o
 .rodata.getenv_f.str1.1
                0x00049724       0x30 cmd/built-in.o
 .rodata.gpio_direction_input.str1.1
                0x00049754        0xa drivers/gpio/built-in.o
 .rodata.gpio_direction_output.str1.1
                0x0004975e        0xb drivers/gpio/built-in.o
 .rodata.gpio_get_description.str1.1
                0x00049769        0xa cmd/built-in.o
                                 0x18 (size before relaxing)
 .rodata.gpio_get_status.str1.1
                0x00049773       0x17 drivers/gpio/built-in.o
                                 0x19 (size before relaxing)
 .rodata.gunzip.str1.1
                0x0004978a       0x3e lib/built-in.o
 .rodata.handle_include.str1.1
                0x000497c8       0x33 cmd/built-in.o
 .rodata.handle_pxe_menu.str1.1
                0x000497fb       0x15 cmd/built-in.o
                                 0x18 (size before relaxing)
 .rodata.hang.str1.1
                0x00049810       0x2a lib/built-in.o
 .rodata.hash_command.str1.1
                0x0004983a       0x25 common/built-in.o
 .rodata.hex_asc
                0x0004985f       0x11 lib/built-in.o
 .rodata.hexport_r.str1.1
                0x00049870       0x30 lib/built-in.o
 .rodata.himport_r.str1.1
                0x000498a0       0x99 lib/built-in.o
 .rodata.image_info.str1.1
                0x00049939       0xac cmd/built-in.o
 .rodata.image_print_contents.str1.1
                0x000499e5       0xd0 common/built-in.o
                                 0xd4 (size before relaxing)
 .rodata.image_setup_libfdt.str1.1
                0x00049ab5       0xbb common/built-in.o
 .rodata.inflate.str1.1
                0x00049b70      0x158 lib/built-in.o
 .rodata.inflate_fast.str1.1
                0x00049cc8       0x50 lib/built-in.o
 .rodata.init_baud_rate.str1.1
                0x00049d18        0x9 common/built-in.o
 .rodata.init_mmc_device.str1.1
                0x00049d21       0x1a cmd/built-in.o
 .rodata.initcall_run_list.str1.1
                0x00049d3b       0x31 lib/built-in.o
 .rodata.initr_env.str1.1
                0x00049d6c       0x20 common/built-in.o
                                 0x29 (size before relaxing)
 .rodata.initr_ethaddr.str1.1
                0x00049d8c        0x8 common/built-in.o
 .rodata.initr_mmc.str1.1
                0x00049d8c        0x8 common/built-in.o
 .rodata.initr_net.str1.1
                0x00049d94        0x8 common/built-in.o
 .rodata.insert_var_value_sub.str1.1
                0x00049d9c        0x6 common/built-in.o
 .rodata.ip_to_string.str1.1
                0x00049da2        0xc net/built-in.o
 .rodata.is_gpt_valid.str1.1
                0x00049dae       0xc4 disk/built-in.o
 .rodata.label_boot.str1.1
                0x00049e72      0x148 cmd/built-in.o
                                0x19c (size before relaxing)
 .rodata.label_print.str1.1
                0x00049fba        0x8 cmd/built-in.o
 .rodata.lcd_clear.str1.1
                0x00049fc2        0xc common/built-in.o
 .rodata.lcd_ctrl_init.str1.1
                0x00049fce       0x53 drivers/built-in.o
 .rodata.lcd_dt_simplefb_add_node.str1.1
                0x0004a021        0xb common/built-in.o
                                 0x1e (size before relaxing)
 .rodata.lcd_dt_simplefb_configure_node.str1.1
                0x0004a02c        0x9 common/built-in.o
 .rodata.list_sort.str1.1
                0x0004a035       0x34 lib/built-in.o
 .rodata.lists_bind_drivers.str1.1
                0x0004a069       0x1a drivers/built-in.o
 .rodata.lists_bind_fdt.str1.1
                0x0004a083       0x3f drivers/built-in.o
                                 0x4a (size before relaxing)
 .rodata.lmb_alloc_base.str1.1
                0x0004a0c2       0x34 lib/built-in.o
 .rodata.load_serial.str1.1
                0x0004a0f6       0x65 cmd/built-in.o
 .rodata.load_serial_ymodem.str1.1
                0x0004a15b       0x31 cmd/built-in.o
                                 0x35 (size before relaxing)
 .rodata.main_loop.str1.1
                0x0004a18c       0x19 common/built-in.o
 .rodata.match.str1.1
                0x0004a1a5       0x18 lib/built-in.o
 .rodata.match_entry.str1.1
                0x0004a1bd       0x1b lib/built-in.o
 .rodata.match_string.str1.1
                0x0004a1bd       0x2c lib/built-in.o
 .rodata.mdio_list_devices.str1.1
                0x0004a1e9       0x12 common/built-in.o
                                 0x19 (size before relaxing)
 .rodata.menu_get_choice.str1.1
                0x0004a1fb       0x1d common/built-in.o
                                 0x2a (size before relaxing)
 .rodata.miiphy_duplex.str1.1
                0x0004a218       0x4f common/built-in.o
 .rodata.miiphy_get_dev_by_name.str1.1
                0x0004a267       0x13 common/built-in.o
 .rodata.miiphy_listdev.str1.1
                0x0004a27a       0x2a common/built-in.o
 .rodata.miiphy_set_current_dev.str1.1
                0x0004a2a4       0x14 common/built-in.o
 .rodata.miiphy_speed.str1.1
                0x0004a2b8       0x49 common/built-in.o
 .rodata.misc_init_r.str1.1
                0x0004a301       0xb3 board/raspberrypi/rpi/built-in.o
                                 0xbe (size before relaxing)
 .rodata.mmc_berase.str1.1
                0x0004a3b4       0x6f drivers/mmc/built-in.o
 .rodata.mmc_bread.str1.1
                0x0004a423       0x47 drivers/mmc/built-in.o
 .rodata.mmc_bwrite.str1.1
                0x0004a46a       0x12 drivers/mmc/built-in.o
                                 0x59 (size before relaxing)
 .rodata.mmc_hwpart_config.str1.1
                0x0004a47c      0x19f drivers/mmc/built-in.o
 .rodata.mmc_send_status.str1.1
                0x0004a61b       0x32 drivers/mmc/built-in.o
 .rodata.mmc_start_init.str1.1
                0x0004a64d       0x3f drivers/mmc/built-in.o
 .rodata.mmc_startup.str1.1
                0x0004a68c       0x38 drivers/mmc/built-in.o
                                 0x3e (size before relaxing)
 .rodata.mod_mem.isra.0.str1.1
                0x0004a6c4       0x1d cmd/built-in.o
 .rodata.multipliers
                0x0004a6e1       0x10 drivers/mmc/built-in.o
 .rodata.names.7246
                0x0004a6f1        0x6 lib/built-in.o
 .rodata.net_auto_load.str1.1
                0x0004a6f7        0xd net/built-in.o
 .rodata.net_bcast_ethaddr
                0x0004a704        0x6 net/built-in.o
                0x0004a704                net_bcast_ethaddr
 .rodata.net_loop.str1.1
                0x0004a70a       0xe5 net/built-in.o
                                 0xf7 (size before relaxing)
 .rodata.net_process_received_packet.str1.1
                0x0004a7ef       0x1d net/built-in.o
 .rodata.net_start_again.str1.1
                0x0004a80c        0xe net/built-in.o
                                 0x15 (size before relaxing)
 .rodata.netboot_common.str1.1
                0x0004a81a       0x16 cmd/built-in.o
                                 0x4a (size before relaxing)
 .rodata.nfs_handler.str1.1
                0x0004a830       0x56 net/built-in.o
 .rodata.nfs_lookup_reply.str1.1
                0x0004a886       0x25 net/built-in.o
                                 0x27 (size before relaxing)
 .rodata.nfs_read_reply.isra.0.str1.1
                0x0004a8ab        0x4 net/built-in.o
 .rodata.nfs_readlink_reply.str1.1
                0x0004a8af        0x2 net/built-in.o
 .rodata.nfs_start.str1.1
                0x0004a8af       0x1e net/built-in.o
                                 0x1f (size before relaxing)
 .rodata.nfs_timeout_handler.str1.1
                0x0004a8cd       0x2a net/built-in.o
 .rodata.of_bus_default_count_cells.str1.1
                0x0004a8f7        0xc common/built-in.o
 .rodata.on_baudrate.str1.1
                0x0004a903       0x42 drivers/serial/built-in.o
                                 0x74 (size before relaxing)
 .rodata.on_callbacks.str1.1
                0x0004a945       0xf4 common/built-in.o
 .rodata.on_console.str1.1
                0x0004aa39       0x5e common/built-in.o
                                 0x27 (size before relaxing)
 .rodata.on_ethaddr.str1.1
                0x0004aa39        0x4 net/built-in.o
 .rodata.on_flags.str1.1
                0x0004aa39       0x5b common/built-in.o
 .rodata.parse_integer.str1.1
                0x0004aa94       0x17 cmd/built-in.o
 .rodata.parse_pxefile_top.str1.1
                0x0004aaab       0x89 cmd/built-in.o
 .rodata.parse_sliteral.str1.1
                0x0004ab34       0x1f cmd/built-in.o
 .rodata.parse_stream_outer.str1.1
                0x0004ab53       0x4d common/built-in.o
 .rodata.parse_string_outer.str1.1
                0x0004aba0        0x2 common/built-in.o
 .rodata.part_get_info_efi.str1.1
                0x0004aba0        0xa disk/built-in.o
 .rodata.part_get_info_extended.str1.1
                0x0004aba0        0xa disk/built-in.o
                                 0x11 (size before relaxing)
 .rodata.part_get_info_iso_verb.str1.1
                0x0004abaa      0x1bf disk/built-in.o
                                0x1c6 (size before relaxing)
 .rodata.part_print.str1.1
                0x0004ad69       0x82 disk/built-in.o
                                 0x8b (size before relaxing)
 .rodata.part_print_dos.str1.1
                0x0004adeb       0x2a disk/built-in.o
 .rodata.part_print_efi.str1.1
                0x0004ae15       0xf9 disk/built-in.o
 .rodata.part_print_iso.str1.1
                0x0004af0e       0x68 disk/built-in.o
 .rodata.part_set_generic_name.str1.1
                0x0004af76        0xa disk/built-in.o
 .rodata.ping_start.str1.1
                0x0004af80       0x11 net/built-in.o
 .rodata.power_on_module.str1.1
                0x0004af91       0x2e board/raspberrypi/rpi/built-in.o
 .rodata.print_buffer.str1.1
                0x0004afbf        0xe lib/built-in.o
                                 0x17 (size before relaxing)
 .rodata.print_data.str1.1
                0x0004afcd       0x27 cmd/built-in.o
                                 0x32 (size before relaxing)
 .rodata.print_freq.str1.1
                0x0004aff4       0x1b lib/built-in.o
 .rodata.print_mmc_devices.str1.1
                0x0004b00f       0x12 drivers/mmc/built-in.o
                                 0x1c (size before relaxing)
 .rodata.print_num.str1.1
                0x0004b021       0x10 cmd/built-in.o
 .rodata.print_partition_extended.str1.1
                0x0004b031       0x83 disk/built-in.o
                                 0x84 (size before relaxing)
 .rodata.print_size.str1.1
                0x0004b0b4       0x15 lib/built-in.o
 .rodata.quantifier.str1.1
                0x0004b0c9       0x17 lib/built-in.o
 .rodata.read_allocated_block.str1.1
                0x0004b0e0      0x240 fs/built-in.o
 .rodata.read_bootsectandvi.str1.1
                0x0004b320       0x1b fs/built-in.o
 .rodata.realloc.str1.1
                0x0004b33b       0x25 common/built-in.o
 .rodata.regex_callback.str1.1
                0x0004b360        0x5 common/built-in.o
                                 0x20 (size before relaxing)
 .rodata.regex_sub.str1.1
                0x0004b365       0xbd cmd/built-in.o
 .rodata.run_list_real.str1.1
                0x0004b422       0x45 common/built-in.o
                                 0x4b (size before relaxing)
 .rodata.saveenv.str1.1
                0x0004b467       0x63 common/built-in.o
                                 0x6d (size before relaxing)
 .rodata.sdhci_init.str1.1
                0x0004b4ca       0x24 drivers/mmc/built-in.o
 .rodata.sdhci_reset.str1.1
                0x0004b4ee       0x21 drivers/mmc/built-in.o
 .rodata.sdhci_send_command.str1.1
                0x0004b50f       0x9b drivers/mmc/built-in.o
 .rodata.sdhci_set_ios.str1.1
                0x0004b5aa       0x4e drivers/mmc/built-in.o
 .rodata.sdhci_setup_cfg.str1.1
                0x0004b5f8       0x33 drivers/mmc/built-in.o
 .rodata.serial_init.str1.1
                0x0004b62b        0xc drivers/serial/built-in.o
                                 0x14 (size before relaxing)
 .rodata.set_default_env.str1.1
                0x0004b637       0x5e common/built-in.o
                                 0x9b (size before relaxing)
 .rodata.set_local_var.str1.1
                0x0004b695       0x59 common/built-in.o
 .rodata.set_working_fdt_addr.str1.1
                0x0004b6ee        0x8 cmd/built-in.o
 .rodata.setenv.str1.1
                0x0004b6f6        0x7 cmd/built-in.o
 .rodata.setenv_hex.str1.1
                0x0004b6fd        0x4 cmd/built-in.o
 .rodata.show_devices.str1.1
                0x0004b6fd       0x21 drivers/built-in.o
                                 0x2a (size before relaxing)
 .rodata.show_dram_config.str1.1
                0x0004b71e        0x1 common/built-in.o
 .rodata.show_regs.str1.1
                0x0004b71e       0xff arch/arm/lib/built-in.o
                                0x129 (size before relaxing)
 .rodata.simple_bus_post_bind.str1.1
                0x0004b81d        0x7 drivers/built-in.o
 .rodata.smbios_guid
                0x0004b81d       0x10 lib/built-in.o
 .rodata.smbios_write_type0.str1.1
                0x0004b82d       0x29 lib/built-in.o
                                 0x30 (size before relaxing)
 .rodata.smbios_write_type1.str1.1
                0x0004b856        0x8 lib/built-in.o
 .rodata.smbios_write_type2.str1.1
                0x0004b856        0x4 lib/built-in.o
 .rodata.smbios_write_type3.str1.1
                0x0004b85a        0xc lib/built-in.o
 .rodata.smbios_write_type4.str1.1
                0x0004b866        0x8 lib/built-in.o
 .rodata.smsc95xx_eth_get_info.str1.1
                0x0004b866        0x9 drivers/usb/eth/built-in.o
 .rodata.smsc95xx_init.str1.1
                0x0004b86f       0x75 drivers/usb/eth/built-in.o
 .rodata.source.str1.1
                0x0004b8e4       0x7e cmd/built-in.o
 .rodata.stdio_add_devices.str1.1
                0x0004b962        0x7 common/built-in.o
 .rodata.stdio_deregister_dev.str1.1
                0x0004b962        0x8 common/built-in.o
 .rodata.stdio_print_current_devices.str1.1
                0x0004b96a       0x70 common/built-in.o
                                 0x74 (size before relaxing)
 .rodata.store_char_in_data.str1.1
                0x0004b9da       0x1f lib/built-in.o
 .rodata.str1.1
                0x0004b9f9       0xeb arch/arm/lib/built-in.o
 .rodata.str1.1
                0x0004bae4      0x12c board/raspberrypi/rpi/built-in.o
                                0x134 (size before relaxing)
 .rodata.str1.1
                0x0004bc10     0x2ecf cmd/built-in.o
                               0x3198 (size before relaxing)
 .rodata.str1.1
                0x0004eadf      0x799 common/built-in.o
                                0x823 (size before relaxing)
 .rodata.str1.1
                0x0004f278       0x1f disk/built-in.o
                                 0x22 (size before relaxing)
 .rodata.str1.1
                0x0004f297       0x4a drivers/built-in.o
                                 0x55 (size before relaxing)
 .rodata.str1.1
                0x0004f2e1       0x33 drivers/gpio/built-in.o
                                 0x45 (size before relaxing)
 .rodata.str1.1
                0x0004f314        0x4 drivers/mmc/built-in.o
 .rodata.str1.1
                0x0004f314       0x28 drivers/serial/built-in.o
                                 0x38 (size before relaxing)
 .rodata.str1.1
                0x0004f33c       0x11 fs/built-in.o
                                 0x15 (size before relaxing)
 .rodata.str1.1
                0x0004f34d      0x45f lib/built-in.o
                                0x460 (size before relaxing)
 .rodata.str1.1
                0x0004f7ac        0x6 net/built-in.o
                                 0x3e (size before relaxing)
 .rodata.str1.1
                0x0004f7b2       0xdc test/dm/built-in.o
                                 0xe2 (size before relaxing)
 .rodata.string.str1.1
                0x0004f88e        0x7 lib/built-in.o
 .rodata.submit_control_msg.str1.1
                0x0004f895       0x44 drivers/usb/host/built-in.o
 .rodata.substitute.str1.1
                0x0004f8d9       0x28 cmd/built-in.o
 .rodata.syntax_err.str1.1
                0x0004f901        0xe common/built-in.o
 .rodata.tab_seq
                0x0004f90f        0x9 common/built-in.o
 .rodata.test_block_type.str1.1
                0x0004f918        0x6 disk/built-in.o
                                  0xa (size before relaxing)
 .rodata.tftp_handler.str1.1
                0x0004f91e       0x72 net/built-in.o
                                 0x8a (size before relaxing)
 .rodata.tftp_send.str1.1
                0x0004f990       0x42 net/built-in.o
                                 0x4e (size before relaxing)
 .rodata.tftp_start.str1.1
                0x0004f9d2      0x156 net/built-in.o
                                0x180 (size before relaxing)
 .rodata.tftp_timeout_handler.str1.1
                0x0004fb28       0x2a net/built-in.o
                                 0x2d (size before relaxing)
 .rodata.u_boot_hush_start.str1.1
                0x0004fb52       0x12 common/built-in.o
 .rodata.uclass_resolve_seq.str1.1
                0x0004fb64       0x27 drivers/built-in.o
 .rodata.us_direction
                0x0004fb8b       0x20 common/built-in.o
 .rodata.usb_alloc_new_device.str1.1
                0x0004fbab       0x25 common/built-in.o
 .rodata.usb_display_class_sub.str1.1
                0x0004fbd0       0xb6 cmd/built-in.o
                                 0xbc (size before relaxing)
 .rodata.usb_display_config.str1.1
                0x0004fc86      0x10d cmd/built-in.o
                                0x11a (size before relaxing)
 .rodata.usb_display_desc.part.0.str1.1
                0x0004fd93       0xac cmd/built-in.o
 .rodata.usb_display_string.str1.1
                0x0004fe3f        0xd cmd/built-in.o
 .rodata.usb_find_usb2_hub_address_port.str1.1
                0x0004fe4c       0x36 common/built-in.o
 .rodata.usb_get_class_desc.str1.1
                0x0004fe82       0x64 cmd/built-in.o
                                 0x65 (size before relaxing)
 .rodata.usb_get_configuration_len.str1.1
                0x0004fee6       0x58 common/built-in.o
 .rodata.usb_host_eth_scan.str1.1
                0x0004ff3e       0xa3 drivers/usb/eth/built-in.o
 .rodata.usb_hub_configure.str1.1
                0x0004ffe1       0x80 common/built-in.o
 .rodata.usb_hub_port_connect_change.str1.1
                0x00050061       0x39 common/built-in.o
 .rodata.usb_init.str1.1
                0x0005009a       0xb3 common/built-in.o
 .rodata.usb_kbd_arrow
                0x0005014d        0x4 common/built-in.o
 .rodata.usb_kbd_num_keypad
                0x00050151       0x14 common/built-in.o
 .rodata.usb_kbd_numkey
                0x00050165       0x1b common/built-in.o
 .rodata.usb_kbd_numkey_shifted
                0x00050180       0x1b common/built-in.o
 .rodata.usb_kbd_testc.str1.1
                0x0005019b        0x7 common/built-in.o
 .rodata.usb_lowlevel_init.str1.1
                0x000501a2       0x43 drivers/usb/host/built-in.o
 .rodata.usb_select_config.str1.1
                0x000501e5      0x220 common/built-in.o
 .rodata.usb_set_interface.str1.1
                0x00050405       0x1f common/built-in.o
 .rodata.usb_setup_device.str1.1
                0x00050424       0x91 common/built-in.o
 .rodata.usb_show_tree_graph.str1.1
                0x000504b5       0x2f cmd/built-in.o
                                 0x3a (size before relaxing)
 .rodata.usb_stop.str1.1
                0x000504e4       0x22 common/built-in.o
 .rodata.usb_stor_CBI_get_status.isra.4.str1.1
                0x00050506       0x1f common/built-in.o
 .rodata.usb_stor_CB_transport.str1.1
                0x00050525       0x6e common/built-in.o
 .rodata.usb_stor_get_info.str1.1
                0x00050593       0x5d common/built-in.o
 .rodata.usb_stor_info.str1.1
                0x000505f0       0x32 common/built-in.o
                                 0x40 (size before relaxing)
 .rodata.usb_stor_scan.str1.1
                0x00050622       0x75 common/built-in.o
 .rodata.usb_storage_probe.str1.1
                0x00050697       0x5c common/built-in.o
 .rodata.uuid_bin_to_str.str1.1
                0x000506f3       0x1f lib/built-in.o
                                  0x5 (size before relaxing)
 .rodata.valid_elf_image.str1.1
                0x000506f3       0x52 cmd/built-in.o
 .rodata.validate_gpt_entries.str1.1
                0x00050745       0x40 disk/built-in.o
 .rodata.validate_gpt_header.str1.1
                0x00050785       0xe1 disk/built-in.o
 .rodata.var_complete.str1.1
                0x00050866        0x1 common/built-in.o
 .rodata.version_string
                0x00050866       0x44 cmd/built-in.o
                0x00050866                version_string
 .rodata.video_fontdata
                0x000508aa     0x1000 common/built-in.o
 .rodata.write_smbios_table.str1.1
                0x000518aa        0xb lib/built-in.o
 .rodata.xmalloc.str1.1
                0x000518b5       0x1e common/built-in.o
 .rodata.xyzModem_error.str1.1
                0x000518d3        0xe common/built-in.o
 .rodata.xyzModem_stream_close.str1.1
                0x000518e1       0x47 common/built-in.o
                                 0x4b (size before relaxing)
 .rodata.xyzModem_stream_open.str1.1
                0x00051928        0x2 common/built-in.o
 .rodata.zunzip.str1.1
                0x00051928       0x47 lib/built-in.o

.hash           0x00051970       0x18
 .hash          0x00051970       0x18 arch/arm/cpu/armv7/start.o

.dtb.init.rodata
                0x00051990     0x1d00
 .dtb.init.rodata
                0x00051990     0x1d00 dts/built-in.o
                0x00051990                __dtb_dt_begin
                0x0005368e                __dtb_dt_end
                0x00053690                . = ALIGN (0x4)

.data           0x00053690     0x1d1c
 *(.data*)
 .data.rel.ro   0x00053690        0x0 arch/arm/cpu/armv7/start.o
 .data.bootm_help_text
                0x00053690      0x38b cmd/built-in.o
 *fill*         0x00053a1b        0x1 
 .data.cmd_bootm_sub
                0x00053a1c       0xfc cmd/built-in.o
 .data.source_help_text
                0x00053b18       0x4e cmd/built-in.o
 *fill*         0x00053b66        0x2 
 .data.bootefi_device_obj
                0x00053b68       0x2c cmd/built-in.o
 .data.bootefi_device_path
                0x00053b94       0x88 cmd/built-in.o
 .data.bootefi_help_text
                0x00053c1c       0xbf cmd/built-in.o
 *fill*         0x00053cdb        0x1 
 .data.bootefi_image_path
                0x00053cdc       0x88 cmd/built-in.o
 *fill*         0x00053d64        0x4 
 .data.loaded_image_info
                0x00053d68       0x60 cmd/built-in.o
 .data.loaded_image_info_obj
                0x00053dc8       0x2c cmd/built-in.o
 .data.bootz_help_text
                0x00053df4      0x208 cmd/built-in.o
 .data.fdt_help_text
                0x00053ffc      0x649 cmd/built-in.o
 .data.root.7944
                0x00054645        0x2 cmd/built-in.o
 .data.tabs.8029
                0x00054647       0x21 cmd/built-in.o
 .data.do_echo  0x00054668        0x4 cmd/built-in.o
 .data.dp_last_length
                0x0005466c        0x4 cmd/built-in.o
 .data.cmd_mmc  0x00054670      0x118 cmd/built-in.o
 .data.curr_device
                0x00054788        0x4 cmd/built-in.o
 .data.cmd_pxe_sub
                0x0005478c       0x38 cmd/built-in.o
 .data.pxe_default_paths
                0x000547c4       0x10 cmd/built-in.o
                0x000547c4                pxe_default_paths
 .data.usb_stor_curr_dev
                0x000547d4        0x4 cmd/built-in.o
 .data.imgextract_help_text
                0x000547d8       0x55 cmd/built-in.o
 *fill*         0x0005482d        0x3 
 .data.cmd_env_sub
                0x00054830      0x118 cmd/built-in.o
 .data.env_help_text
                0x00054948      0x24f cmd/built-in.o
 *fill*         0x00054b97        0x1 
 .data.env_id   0x00054b98        0x4 cmd/built-in.o
 .data.reserved_list
                0x00054b9c       0x84 common/built-in.o
 .data.init_sequence_f
                0x00054c20       0x98 common/built-in.o
 .data.init_sequence_r
                0x00054cb8       0x70 common/built-in.o
                0x00054cb8                init_sequence_r
 .data.first_call
                0x00054d28        0x8 common/built-in.o
 .data.env_name_spec
                0x00054d30        0x4 common/built-in.o
                0x00054d30                env_name_spec
 .data.of_busses
                0x00054d34       0x18 common/built-in.o
 .data.usb_scan_list
                0x00054d4c        0x8 common/built-in.o
 .data.do_splash.7554
                0x00054d54        0x4 common/built-in.o
 .data.env_htab
                0x00054d58       0x10 common/built-in.o
                0x00054d58                env_htab
 .data.av_      0x00054d68      0x408 common/built-in.o
 .data.sbrk_base
                0x00055170        0x4 common/built-in.o
 .data.trim_threshold
                0x00055174        0x4 common/built-in.o
 .data.load_addr
                0x00055178        0x4 common/built-in.o
                0x00055178                load_addr
 .data.stdio_names
                0x0005517c        0xc common/built-in.o
                0x0005517c                stdio_names
 .data.hist_cur
                0x00055188        0x4 common/built-in.o
 .data.system_guid
                0x0005518c       0x10 disk/built-in.o
 .data.cur_dev_num
                0x0005519c        0x4 drivers/mmc/built-in.o
 .data.cmd_timeout.7715
                0x000551a0        0x4 drivers/mmc/built-in.o
 .data.root_hub_config_des
                0x000551a4       0x19 drivers/usb/host/built-in.o
 .data.root_hub_dev_des
                0x000551bd       0x12 drivers/usb/host/built-in.o
 .data.root_hub_str_index0
                0x000551cf        0x4 drivers/usb/host/built-in.o
 .data.root_hub_str_index1
                0x000551d3       0x20 drivers/usb/host/built-in.o
 *fill*         0x000551f3        0x1 
 .data.fstypes  0x000551f4       0x84 fs/built-in.o
 .data.ext4fs_indir1_blkno
                0x00055278        0x4 fs/built-in.o
                0x00055278                ext4fs_indir1_blkno
 .data.ext4fs_indir2_blkno
                0x0005527c        0x4 fs/built-in.o
                0x0005527c                ext4fs_indir2_blkno
 .data.ext4fs_indir3_blkno
                0x00055280        0x4 fs/built-in.o
                0x00055280                ext4fs_indir3_blkno
 *fill*         0x00055284        0x4 
 .data.efi_event
                0x00055288       0x28 lib/built-in.o
 .data.efi_is_direct_boot
                0x000552b0        0x1 lib/built-in.o
 *fill*         0x000552b1        0x3 
 .data.efi_obj_list
                0x000552b4        0x8 lib/built-in.o
                0x000552b4                efi_obj_list
 .data.loaded_image_info_obj.7960
                0x000552bc       0x2c lib/built-in.o
 .data.efi_runtime_mmio
                0x000552e8        0x8 lib/built-in.o
                0x000552e8                efi_runtime_mmio
 .data.lastoff.9469
                0x000552f0        0x4 lib/built-in.o
 .data.efi_con_mode
                0x000552f4       0x18 lib/built-in.o
 .data.efi_cout_modes
                0x0005530c       0x24 lib/built-in.o
 .data.efi_mem  0x00055330        0x8 lib/built-in.o
                0x00055330                efi_mem
 .data.first_call.7416
                0x00055338        0x4 net/built-in.o
 .data.net_native_vlan
                0x0005533c        0x2 net/built-in.o
                0x0005533c                net_native_vlan
 .data.net_our_vlan
                0x0005533e        0x2 net/built-in.o
                0x0005533e                net_our_vlan
 .data.nfs_offset
                0x00055340        0x4 net/built-in.o
 .data.supported_nfs_versions
                0x00055344        0x1 net/built-in.o
 *fill*         0x00055345        0x1 
 .data.tftp_block_size
                0x00055346        0x2 net/built-in.o
 .data.tftp_block_size_option
                0x00055348        0x2 net/built-in.o
 *fill*         0x0005534a        0x2 
 .data.tftp_timeout_count_max
                0x0005534c        0x4 net/built-in.o
                0x0005534c                tftp_timeout_count_max
 .data.timeout_count_max
                0x00055350        0x4 net/built-in.o
 .data.timeout_ms
                0x00055354        0x4 net/built-in.o
 .data.test_commands
                0x00055358       0x54 test/dm/built-in.o

.got            0x000553ac        0x0
 .got           0x000553ac        0x0 arch/arm/cpu/armv7/start.o

.got.plt        0x000553ac        0xc
 .got.plt       0x000553ac        0xc arch/arm/cpu/armv7/start.o
                0x000553ac                _GLOBAL_OFFSET_TABLE_

.igot.plt       0x000553b8        0x0
 .igot.plt      0x000553b8        0x0 arch/arm/cpu/armv7/start.o
                0x000553b8                . = ALIGN (0x4)
                0x000553b8                . = .
                0x000553b8                . = ALIGN (0x4)

.u_boot_list    0x000553b8      0xbb4
 *(SORT(.u_boot_list*))
 .u_boot_list_2_blk_driver_1
                0x000553b8        0x0 drivers/built-in.o
 .u_boot_list_2_blk_driver_2_mmc
                0x000553b8       0x18 drivers/mmc/built-in.o
                0x000553b8                _u_boot_list_2_blk_driver_2_mmc
 .u_boot_list_2_blk_driver_2_usb
                0x000553d0       0x18 common/built-in.o
                0x000553d0                _u_boot_list_2_blk_driver_2_usb
 .u_boot_list_2_blk_driver_3
                0x000553e8        0x0 drivers/built-in.o
 .u_boot_list_2_cmd_1
                0x000553e8        0x0 cmd/built-in.o
 .u_boot_list_2_cmd_1
                0x000553e8        0x0 common/built-in.o
 .u_boot_list_2_cmd_2_base
                0x000553e8       0x1c cmd/built-in.o
                0x000553e8                _u_boot_list_2_cmd_2_base
 .u_boot_list_2_cmd_2_bdinfo
                0x00055404       0x1c cmd/built-in.o
                0x00055404                _u_boot_list_2_cmd_2_bdinfo
 .u_boot_list_2_cmd_2_boot
                0x00055420       0x1c cmd/built-in.o
                0x00055420                _u_boot_list_2_cmd_2_boot
 .u_boot_list_2_cmd_2_bootd
                0x0005543c       0x1c cmd/built-in.o
                0x0005543c                _u_boot_list_2_cmd_2_bootd
 .u_boot_list_2_cmd_2_bootefi
                0x00055458       0x1c cmd/built-in.o
                0x00055458                _u_boot_list_2_cmd_2_bootefi
 .u_boot_list_2_cmd_2_bootelf
                0x00055474       0x1c cmd/built-in.o
                0x00055474                _u_boot_list_2_cmd_2_bootelf
 .u_boot_list_2_cmd_2_bootm
                0x00055490       0x1c cmd/built-in.o
                0x00055490                _u_boot_list_2_cmd_2_bootm
 .u_boot_list_2_cmd_2_bootp
                0x000554ac       0x1c cmd/built-in.o
                0x000554ac                _u_boot_list_2_cmd_2_bootp
 .u_boot_list_2_cmd_2_bootvx
                0x000554c8       0x1c cmd/built-in.o
                0x000554c8                _u_boot_list_2_cmd_2_bootvx
 .u_boot_list_2_cmd_2_bootz
                0x000554e4       0x1c cmd/built-in.o
                0x000554e4                _u_boot_list_2_cmd_2_bootz
 .u_boot_list_2_cmd_2_cls
                0x00055500       0x1c common/built-in.o
                0x00055500                _u_boot_list_2_cmd_2_cls
 .u_boot_list_2_cmd_2_cmp
                0x0005551c       0x1c cmd/built-in.o
                0x0005551c                _u_boot_list_2_cmd_2_cmp
 .u_boot_list_2_cmd_2_coninfo
                0x00055538       0x1c cmd/built-in.o
                0x00055538                _u_boot_list_2_cmd_2_coninfo
 .u_boot_list_2_cmd_2_cp
                0x00055554       0x1c cmd/built-in.o
                0x00055554                _u_boot_list_2_cmd_2_cp
 .u_boot_list_2_cmd_2_crc32
                0x00055570       0x1c cmd/built-in.o
                0x00055570                _u_boot_list_2_cmd_2_crc32
 .u_boot_list_2_cmd_2_dhcp
                0x0005558c       0x1c cmd/built-in.o
                0x0005558c                _u_boot_list_2_cmd_2_dhcp
 .u_boot_list_2_cmd_2_dm
                0x000555a8       0x1c test/dm/built-in.o
                0x000555a8                _u_boot_list_2_cmd_2_dm
 .u_boot_list_2_cmd_2_echo
                0x000555c4       0x1c cmd/built-in.o
                0x000555c4                _u_boot_list_2_cmd_2_echo
 .u_boot_list_2_cmd_2_editenv
                0x000555e0       0x1c cmd/built-in.o
                0x000555e0                _u_boot_list_2_cmd_2_editenv
 .u_boot_list_2_cmd_2_env
                0x000555fc       0x1c cmd/built-in.o
                0x000555fc                _u_boot_list_2_cmd_2_env
 .u_boot_list_2_cmd_2_exit
                0x00055618       0x1c cmd/built-in.o
                0x00055618                _u_boot_list_2_cmd_2_exit
 .u_boot_list_2_cmd_2_ext2load
                0x00055634       0x1c cmd/built-in.o
                0x00055634                _u_boot_list_2_cmd_2_ext2load
 .u_boot_list_2_cmd_2_ext2ls
                0x00055650       0x1c cmd/built-in.o
                0x00055650                _u_boot_list_2_cmd_2_ext2ls
 .u_boot_list_2_cmd_2_ext4load
                0x0005566c       0x1c cmd/built-in.o
                0x0005566c                _u_boot_list_2_cmd_2_ext4load
 .u_boot_list_2_cmd_2_ext4ls
                0x00055688       0x1c cmd/built-in.o
                0x00055688                _u_boot_list_2_cmd_2_ext4ls
 .u_boot_list_2_cmd_2_ext4size
                0x000556a4       0x1c cmd/built-in.o
                0x000556a4                _u_boot_list_2_cmd_2_ext4size
 .u_boot_list_2_cmd_2_false
                0x000556c0       0x1c cmd/built-in.o
                0x000556c0                _u_boot_list_2_cmd_2_false
 .u_boot_list_2_cmd_2_fatinfo
                0x000556dc       0x1c cmd/built-in.o
                0x000556dc                _u_boot_list_2_cmd_2_fatinfo
 .u_boot_list_2_cmd_2_fatload
                0x000556f8       0x1c cmd/built-in.o
                0x000556f8                _u_boot_list_2_cmd_2_fatload
 .u_boot_list_2_cmd_2_fatls
                0x00055714       0x1c cmd/built-in.o
                0x00055714                _u_boot_list_2_cmd_2_fatls
 .u_boot_list_2_cmd_2_fatsize
                0x00055730       0x1c cmd/built-in.o
                0x00055730                _u_boot_list_2_cmd_2_fatsize
 .u_boot_list_2_cmd_2_fatwrite
                0x0005574c       0x1c cmd/built-in.o
                0x0005574c                _u_boot_list_2_cmd_2_fatwrite
 .u_boot_list_2_cmd_2_fdt
                0x00055768       0x1c cmd/built-in.o
                0x00055768                _u_boot_list_2_cmd_2_fdt
 .u_boot_list_2_cmd_2_fstype
                0x00055784       0x1c cmd/built-in.o
                0x00055784                _u_boot_list_2_cmd_2_fstype
 .u_boot_list_2_cmd_2_go
                0x000557a0       0x1c cmd/built-in.o
                0x000557a0                _u_boot_list_2_cmd_2_go
 .u_boot_list_2_cmd_2_gpio
                0x000557bc       0x1c cmd/built-in.o
                0x000557bc                _u_boot_list_2_cmd_2_gpio
 .u_boot_list_2_cmd_2_help
                0x000557d8       0x1c cmd/built-in.o
                0x000557d8                _u_boot_list_2_cmd_2_help
 .u_boot_list_2_cmd_2_iminfo
                0x000557f4       0x1c cmd/built-in.o
                0x000557f4                _u_boot_list_2_cmd_2_iminfo
 .u_boot_list_2_cmd_2_imxtract
                0x00055810       0x1c cmd/built-in.o
                0x00055810                _u_boot_list_2_cmd_2_imxtract
 .u_boot_list_2_cmd_2_itest
                0x0005582c       0x1c cmd/built-in.o
                0x0005582c                _u_boot_list_2_cmd_2_itest
 .u_boot_list_2_cmd_2_lcdputs
                0x00055848       0x1c common/built-in.o
                0x00055848                _u_boot_list_2_cmd_2_lcdputs
 .u_boot_list_2_cmd_2_load
                0x00055864       0x1c cmd/built-in.o
                0x00055864                _u_boot_list_2_cmd_2_load
 .u_boot_list_2_cmd_2_loadb
                0x00055880       0x1c cmd/built-in.o
                0x00055880                _u_boot_list_2_cmd_2_loadb
 .u_boot_list_2_cmd_2_loads
                0x0005589c       0x1c cmd/built-in.o
                0x0005589c                _u_boot_list_2_cmd_2_loads
 .u_boot_list_2_cmd_2_loadx
                0x000558b8       0x1c cmd/built-in.o
                0x000558b8                _u_boot_list_2_cmd_2_loadx
 .u_boot_list_2_cmd_2_loady
                0x000558d4       0x1c cmd/built-in.o
                0x000558d4                _u_boot_list_2_cmd_2_loady
 .u_boot_list_2_cmd_2_loop
                0x000558f0       0x1c cmd/built-in.o
                0x000558f0                _u_boot_list_2_cmd_2_loop
 .u_boot_list_2_cmd_2_ls
                0x0005590c       0x1c cmd/built-in.o
                0x0005590c                _u_boot_list_2_cmd_2_ls
 .u_boot_list_2_cmd_2_md
                0x00055928       0x1c cmd/built-in.o
                0x00055928                _u_boot_list_2_cmd_2_md
 .u_boot_list_2_cmd_2_mii
                0x00055944       0x1c cmd/built-in.o
                0x00055944                _u_boot_list_2_cmd_2_mii
 .u_boot_list_2_cmd_2_mm
                0x00055960       0x1c cmd/built-in.o
                0x00055960                _u_boot_list_2_cmd_2_mm
 .u_boot_list_2_cmd_2_mmc
                0x0005597c       0x1c cmd/built-in.o
                0x0005597c                _u_boot_list_2_cmd_2_mmc
 .u_boot_list_2_cmd_2_mmcinfo
                0x00055998       0x1c cmd/built-in.o
                0x00055998                _u_boot_list_2_cmd_2_mmcinfo
 .u_boot_list_2_cmd_2_mw
                0x000559b4       0x1c cmd/built-in.o
                0x000559b4                _u_boot_list_2_cmd_2_mw
 .u_boot_list_2_cmd_2_nfs
                0x000559d0       0x1c cmd/built-in.o
                0x000559d0                _u_boot_list_2_cmd_2_nfs
 .u_boot_list_2_cmd_2_nm
                0x000559ec       0x1c cmd/built-in.o
                0x000559ec                _u_boot_list_2_cmd_2_nm
 .u_boot_list_2_cmd_2_part
                0x00055a08       0x1c cmd/built-in.o
                0x00055a08                _u_boot_list_2_cmd_2_part
 .u_boot_list_2_cmd_2_ping
                0x00055a24       0x1c cmd/built-in.o
                0x00055a24                _u_boot_list_2_cmd_2_ping
 .u_boot_list_2_cmd_2_printenv
                0x00055a40       0x1c cmd/built-in.o
                0x00055a40                _u_boot_list_2_cmd_2_printenv
 .u_boot_list_2_cmd_2_pxe
                0x00055a5c       0x1c cmd/built-in.o
                0x00055a5c                _u_boot_list_2_cmd_2_pxe
 .u_boot_list_2_cmd_2_question_mark
                0x00055a78       0x1c cmd/built-in.o
                0x00055a78                _u_boot_list_2_cmd_2_question_mark
 .u_boot_list_2_cmd_2_reset
                0x00055a94       0x1c cmd/built-in.o
                0x00055a94                _u_boot_list_2_cmd_2_reset
 .u_boot_list_2_cmd_2_run
                0x00055ab0       0x1c cmd/built-in.o
                0x00055ab0                _u_boot_list_2_cmd_2_run
 .u_boot_list_2_cmd_2_save
                0x00055acc       0x1c cmd/built-in.o
                0x00055acc                _u_boot_list_2_cmd_2_save
 .u_boot_list_2_cmd_2_saveenv
                0x00055ae8       0x1c cmd/built-in.o
                0x00055ae8                _u_boot_list_2_cmd_2_saveenv
 .u_boot_list_2_cmd_2_setcurs
                0x00055b04       0x1c common/built-in.o
                0x00055b04                _u_boot_list_2_cmd_2_setcurs
 .u_boot_list_2_cmd_2_setenv
                0x00055b20       0x1c cmd/built-in.o
                0x00055b20                _u_boot_list_2_cmd_2_setenv
 .u_boot_list_2_cmd_2_setexpr
                0x00055b3c       0x1c cmd/built-in.o
                0x00055b3c                _u_boot_list_2_cmd_2_setexpr
 .u_boot_list_2_cmd_2_showvar
                0x00055b58       0x1c common/built-in.o
                0x00055b58                _u_boot_list_2_cmd_2_showvar
 .u_boot_list_2_cmd_2_size
                0x00055b74       0x1c cmd/built-in.o
                0x00055b74                _u_boot_list_2_cmd_2_size
 .u_boot_list_2_cmd_2_sleep
                0x00055b90       0x1c cmd/built-in.o
                0x00055b90                _u_boot_list_2_cmd_2_sleep
 .u_boot_list_2_cmd_2_source
                0x00055bac       0x1c cmd/built-in.o
                0x00055bac                _u_boot_list_2_cmd_2_source
 .u_boot_list_2_cmd_2_sysboot
                0x00055bc8       0x1c cmd/built-in.o
                0x00055bc8                _u_boot_list_2_cmd_2_sysboot
 .u_boot_list_2_cmd_2_test
                0x00055be4       0x1c cmd/built-in.o
                0x00055be4                _u_boot_list_2_cmd_2_test
 .u_boot_list_2_cmd_2_tftpboot
                0x00055c00       0x1c cmd/built-in.o
                0x00055c00                _u_boot_list_2_cmd_2_tftpboot
 .u_boot_list_2_cmd_2_true
                0x00055c1c       0x1c cmd/built-in.o
                0x00055c1c                _u_boot_list_2_cmd_2_true
 .u_boot_list_2_cmd_2_usb
                0x00055c38       0x1c cmd/built-in.o
                0x00055c38                _u_boot_list_2_cmd_2_usb
 .u_boot_list_2_cmd_2_usbboot
                0x00055c54       0x1c cmd/built-in.o
                0x00055c54                _u_boot_list_2_cmd_2_usbboot
 .u_boot_list_2_cmd_2_version
                0x00055c70       0x1c cmd/built-in.o
                0x00055c70                _u_boot_list_2_cmd_2_version
 .u_boot_list_2_cmd_3
                0x00055c8c        0x0 cmd/built-in.o
 .u_boot_list_2_cmd_3
                0x00055c8c        0x0 common/built-in.o
 .u_boot_list_2_driver_1
                0x00055c8c        0x0 drivers/built-in.o
 .u_boot_list_2_driver_2_gpio_bcm2835
                0x00055c8c       0x44 drivers/gpio/built-in.o
                0x00055c8c                _u_boot_list_2_driver_2_gpio_bcm2835
 .u_boot_list_2_driver_2_root_driver
                0x00055cd0       0x44 drivers/built-in.o
                0x00055cd0                _u_boot_list_2_driver_2_root_driver
 .u_boot_list_2_driver_2_serial_bcm283x_mu
                0x00055d14       0x44 drivers/serial/built-in.o
                0x00055d14                _u_boot_list_2_driver_2_serial_bcm283x_mu
 .u_boot_list_2_driver_2_simple_bus_drv
                0x00055d58       0x44 drivers/built-in.o
                0x00055d58                _u_boot_list_2_driver_2_simple_bus_drv
 .u_boot_list_2_driver_3
                0x00055d9c        0x0 drivers/built-in.o
 .u_boot_list_2_driver_info_1
                0x00055d9c        0x0 drivers/built-in.o
 .u_boot_list_2_driver_info_3
                0x00055d9c        0x0 drivers/built-in.o
 .u_boot_list_2_env_clbk_1
                0x00055d9c        0x0 common/built-in.o
 .u_boot_list_2_env_clbk_2_baudrate
                0x00055d9c        0x8 drivers/serial/built-in.o
                0x00055d9c                _u_boot_list_2_env_clbk_2_baudrate
 .u_boot_list_2_env_clbk_2_bootfile
                0x00055da4        0x8 net/built-in.o
                0x00055da4                _u_boot_list_2_env_clbk_2_bootfile
 .u_boot_list_2_env_clbk_2_callbacks
                0x00055dac        0x8 common/built-in.o
                0x00055dac                _u_boot_list_2_env_clbk_2_callbacks
 .u_boot_list_2_env_clbk_2_console
                0x00055db4        0x8 common/built-in.o
                0x00055db4                _u_boot_list_2_env_clbk_2_console
 .u_boot_list_2_env_clbk_2_ethaddr
                0x00055dbc        0x8 net/built-in.o
                0x00055dbc                _u_boot_list_2_env_clbk_2_ethaddr
 .u_boot_list_2_env_clbk_2_flags
                0x00055dc4        0x8 common/built-in.o
                0x00055dc4                _u_boot_list_2_env_clbk_2_flags
 .u_boot_list_2_env_clbk_2_gatewayip
                0x00055dcc        0x8 net/built-in.o
                0x00055dcc                _u_boot_list_2_env_clbk_2_gatewayip
 .u_boot_list_2_env_clbk_2_ipaddr
                0x00055dd4        0x8 net/built-in.o
                0x00055dd4                _u_boot_list_2_env_clbk_2_ipaddr
 .u_boot_list_2_env_clbk_2_loadaddr
                0x00055ddc        0x8 common/built-in.o
                0x00055ddc                _u_boot_list_2_env_clbk_2_loadaddr
 .u_boot_list_2_env_clbk_2_netmask
                0x00055de4        0x8 net/built-in.o
                0x00055de4                _u_boot_list_2_env_clbk_2_netmask
 .u_boot_list_2_env_clbk_2_nvlan
                0x00055dec        0x8 net/built-in.o
                0x00055dec                _u_boot_list_2_env_clbk_2_nvlan
 .u_boot_list_2_env_clbk_2_serverip
                0x00055df4        0x8 net/built-in.o
                0x00055df4                _u_boot_list_2_env_clbk_2_serverip
 .u_boot_list_2_env_clbk_2_vlan
                0x00055dfc        0x8 net/built-in.o
                0x00055dfc                _u_boot_list_2_env_clbk_2_vlan
 .u_boot_list_2_env_clbk_3
                0x00055e04        0x0 common/built-in.o
 .u_boot_list_2_part_driver_1
                0x00055e04        0x0 disk/built-in.o
 .u_boot_list_2_part_driver_2_a_efi
                0x00055e04       0x18 disk/built-in.o
                0x00055e04                _u_boot_list_2_part_driver_2_a_efi
 .u_boot_list_2_part_driver_2_dos
                0x00055e1c       0x18 disk/built-in.o
                0x00055e1c                _u_boot_list_2_part_driver_2_dos
 .u_boot_list_2_part_driver_2_iso
                0x00055e34       0x18 disk/built-in.o
                0x00055e34                _u_boot_list_2_part_driver_2_iso
 .u_boot_list_2_part_driver_3
                0x00055e4c        0x0 disk/built-in.o
 .u_boot_list_2_uclass_1
                0x00055e4c        0x0 drivers/built-in.o
 .u_boot_list_2_uclass_2_gpio
                0x00055e4c       0x48 drivers/gpio/built-in.o
                0x00055e4c                _u_boot_list_2_uclass_2_gpio
 .u_boot_list_2_uclass_2_root
                0x00055e94       0x48 drivers/built-in.o
                0x00055e94                _u_boot_list_2_uclass_2_root
 .u_boot_list_2_uclass_2_serial
                0x00055edc       0x48 drivers/serial/built-in.o
                0x00055edc                _u_boot_list_2_uclass_2_serial
 .u_boot_list_2_uclass_2_simple_bus
                0x00055f24       0x48 drivers/built-in.o
                0x00055f24                _u_boot_list_2_uclass_2_simple_bus
 .u_boot_list_2_uclass_3
                0x00055f6c        0x0 drivers/built-in.o
                0x00055f6c                . = ALIGN (0x4)

.__efi_runtime_start
                0x00055f6c        0x0
 *(.__efi_runtime_start)
 .__efi_runtime_start
                0x00055f6c        0x0 arch/arm/lib/built-in.o

.efi_runtime    0x00055f70      0x1a0
 *(efi_runtime_text)
 efi_runtime_text
                0x00055f70       0xa0 arch/arm/mach-bcm283x/built-in.o
                0x00055f70                reset_cpu
                0x00055fb4                efi_reset_system
 efi_runtime_text
                0x00056010       0x24 lib/built-in.o
                0x00056014                efi_get_time
 *(efi_runtime_data)
 efi_runtime_data
                0x00056034        0x4 arch/arm/mach-bcm283x/built-in.o
                0x00056034                wdog_regs
 efi_runtime_data
                0x00056038       0xd8 lib/built-in.o
                0x00056038                systab
                0x000560c0                efi_runtime_services

.__efi_runtime_stop
                0x00056110        0x0
 *(.__efi_runtime_stop)
 .__efi_runtime_stop
                0x00056110        0x0 arch/arm/lib/built-in.o

.efi_runtime_rel_start
                0x00056110        0x0
 *(.__efi_runtime_rel_start)
 .__efi_runtime_rel_start
                0x00056110        0x0 arch/arm/lib/built-in.o

.efi_runtime_rel
                0x00056110       0xa0
 *(.relefi_runtime_text)
 .relefi_runtime_text
                0x00056110       0x10 arch/arm/cpu/armv7/start.o
 *(.relefi_runtime_data)
 .relefi_runtime_data
                0x00056120       0x90 arch/arm/cpu/armv7/start.o

.efi_runtime_rel_stop
                0x000561b0        0x0
 *(.__efi_runtime_rel_stop)
 .__efi_runtime_rel_stop
                0x000561b0        0x0 arch/arm/lib/built-in.o
                0x000561b0                . = ALIGN (0x4)

.image_copy_end
                0x000561b0        0x0
 *(.__image_copy_end)
 .__image_copy_end
                0x000561b0        0x0 arch/arm/lib/built-in.o

.rel_dyn_start  0x000561b0        0x0
 *(.__rel_dyn_start)
 .__rel_dyn_start
                0x000561b0        0x0 arch/arm/lib/built-in.o

.rel.dyn        0x000561b0     0x8bf0
 *(.rel*)
 .rel.got       0x000561b0        0x0 arch/arm/cpu/armv7/start.o
 .rel.plt       0x000561b0        0x0 arch/arm/cpu/armv7/start.o
 .rel.bss       0x000561b0        0x0 arch/arm/cpu/armv7/start.o
 .rel.data.rel.ro
                0x000561b0        0x0 arch/arm/cpu/armv7/start.o
 .rel.iplt      0x000561b0        0x0 arch/arm/cpu/armv7/start.o
 .rel.text      0x000561b0       0x20 arch/arm/cpu/armv7/start.o
 .rel.vectors   0x000561d0       0x38 arch/arm/cpu/armv7/start.o
 .rel.text.relocate_vectors
                0x00056208       0x20 arch/arm/cpu/armv7/start.o
 .rel.text.boot_jump_linux
                0x00056228       0x28 arch/arm/cpu/armv7/start.o
 .rel.text.boot_prep_linux
                0x00056250       0x18 arch/arm/cpu/armv7/start.o
 .rel.text.boot_prep_vxworks
                0x00056268       0x10 arch/arm/cpu/armv7/start.o
 .rel.text.bootz_setup
                0x00056278       0x10 arch/arm/cpu/armv7/start.o
 .rel.text.interrupt_init
                0x00056288        0x8 arch/arm/cpu/armv7/start.o
 .rel.text.bad_mode
                0x00056290        0x8 arch/arm/cpu/armv7/start.o
 .rel.text.show_regs
                0x00056298       0x60 arch/arm/cpu/armv7/start.o
 .rel.text.do_undefined_instruction
                0x000562f8        0x8 arch/arm/cpu/armv7/start.o
 .rel.text.do_software_interrupt
                0x00056300        0x8 arch/arm/cpu/armv7/start.o
 .rel.text.do_prefetch_abort
                0x00056308        0x8 arch/arm/cpu/armv7/start.o
 .rel.text.do_data_abort
                0x00056310        0x8 arch/arm/cpu/armv7/start.o
 .rel.text.do_not_used
                0x00056318        0x8 arch/arm/cpu/armv7/start.o
 .rel.text.do_fiq
                0x00056320        0x8 arch/arm/cpu/armv7/start.o
 .rel.text.do_irq
                0x00056328        0x8 arch/arm/cpu/armv7/start.o
 .rel.text.do_reset
                0x00056330        0x8 arch/arm/cpu/armv7/start.o
 .rel.text.enable_caches
                0x00056338        0x0 arch/arm/cpu/armv7/start.o
 .rel.text.check_cache_range
                0x00056338        0x8 arch/arm/cpu/armv7/start.o
 .rel.rodata    0x00056340      0x100 arch/arm/cpu/armv7/start.o
 .rel.text.efi_reset_system_init
                0x00056440        0x8 arch/arm/cpu/armv7/start.o
 .rel.text.bcm2835_mbox_call_raw
                0x00056448       0x28 arch/arm/cpu/armv7/start.o
 .rel.text.bcm2835_mbox_call_prop
                0x00056470       0x18 arch/arm/cpu/armv7/start.o
 .rel.text.power_on_module
                0x00056488        0x8 arch/arm/cpu/armv7/start.o
 .rel.text.dram_init
                0x00056490        0x8 arch/arm/cpu/armv7/start.o
 .rel.text.board_get_usable_ram_top
                0x00056498        0x8 arch/arm/cpu/armv7/start.o
 .rel.text.misc_init_r
                0x000564a0       0x98 arch/arm/cpu/armv7/start.o
 .rel.text.board_init
                0x00056538       0x60 arch/arm/cpu/armv7/start.o
 .rel.text.board_mmc_init
                0x00056598        0x8 arch/arm/cpu/armv7/start.o
 .rel.rodata.rpi_model_unknown
                0x000565a0       0x10 arch/arm/cpu/armv7/start.o
 .rel.rodata.rpi_models_new_scheme
                0x000565b0       0x30 arch/arm/cpu/armv7/start.o
 .rel.rodata.rpi_models_old_scheme
                0x000565e0      0x110 arch/arm/cpu/armv7/start.o
 .rel.text.do_go
                0x000566f0       0x10 arch/arm/cpu/armv7/start.o
 .rel.text.do_bootm
                0x00056700       0x18 arch/arm/cpu/armv7/start.o
 .rel.text.do_bootd
                0x00056718        0x8 arch/arm/cpu/armv7/start.o
 .rel.text.image_info
                0x00056720       0x40 arch/arm/cpu/armv7/start.o
 .rel.text.do_iminfo
                0x00056760        0x8 arch/arm/cpu/armv7/start.o
 .rel.text.bootm_maybe_autostart
                0x00056768       0x20 arch/arm/cpu/armv7/start.o
 .rel.text.do_help
                0x00056788       0x10 arch/arm/cpu/armv7/start.o
 .rel.text.do_version
                0x00056798       0x20 arch/arm/cpu/armv7/start.o
 .rel.text.source
                0x000567b8       0x38 arch/arm/cpu/armv7/start.o
 .rel.text.do_source
                0x000567f0        0x8 arch/arm/cpu/armv7/start.o
 .rel.text.print_num
                0x000567f8        0x8 arch/arm/cpu/armv7/start.o
 .rel.text.do_bdinfo
                0x00056800       0xa8 arch/arm/cpu/armv7/start.o
 .rel.text.bootefi_open_dp
                0x000568a8        0x8 arch/arm/cpu/armv7/start.o
 .rel.text.do_bootefi_exec
                0x000568b0       0x58 arch/arm/cpu/armv7/start.o
 .rel.text.do_bootefi
                0x00056908       0x10 arch/arm/cpu/armv7/start.o
 .rel.text.efi_set_bootdev
                0x00056918       0x38 arch/arm/cpu/armv7/start.o
 .rel.text.do_bootz
                0x00056950       0x18 arch/arm/cpu/armv7/start.o
 .rel.text.do_coninfo
                0x00056968       0x28 arch/arm/cpu/armv7/start.o
 .rel.text.do_echo
                0x00056990        0x8 arch/arm/cpu/armv7/start.o
 .rel.text.valid_elf_image
                0x00056998       0x10 arch/arm/cpu/armv7/start.o
 .rel.text.do_bootelf
                0x000569a8       0x28 arch/arm/cpu/armv7/start.o
 .rel.text.do_bootvx
                0x000569d0       0xe0 arch/arm/cpu/armv7/start.o
 .rel.text.do_fat_fsinfo
                0x00056ab0       0x10 arch/arm/cpu/armv7/start.o
 .rel.text.do_fat_fswrite
                0x00056ac0       0x18 arch/arm/cpu/armv7/start.o
 .rel.text.fdt_valid
                0x00056ad8       0x28 arch/arm/cpu/armv7/start.o
 .rel.text.is_printable_string
                0x00056b00        0x8 arch/arm/cpu/armv7/start.o
 .rel.text.print_data
                0x00056b08       0x58 arch/arm/cpu/armv7/start.o
 .rel.text.set_working_fdt_addr
                0x00056b60       0x10 arch/arm/cpu/armv7/start.o
 .rel.text.do_fdt
                0x00056b70      0x260 arch/arm/cpu/armv7/start.o
 .rel.text.do_load_wrapper
                0x00056dd0        0x8 arch/arm/cpu/armv7/start.o
 .rel.text.gpio_get_description
                0x00056dd8       0x18 arch/arm/cpu/armv7/start.o
 .rel.text.do_gpio
                0x00056df0       0x50 arch/arm/cpu/armv7/start.o
 .rel.text.binary_test
                0x00056e40       0x70 arch/arm/cpu/armv7/start.o
 .rel.text.do_itest
                0x00056eb0       0x40 arch/arm/cpu/armv7/start.o
 .rel.text.bin_data_init
                0x00056ef0       0x18 arch/arm/cpu/armv7/start.o
 .rel.text.k_data_save
                0x00056f08       0x30 arch/arm/cpu/armv7/start.o
 .rel.text.k_data_restore
                0x00056f38       0x30 arch/arm/cpu/armv7/start.o
 .rel.text.load_serial_ymodem
                0x00056f68       0x20 arch/arm/cpu/armv7/start.o
 .rel.text.bin_data_char
                0x00056f88       0x10 arch/arm/cpu/armv7/start.o
 .rel.text.chk1.constprop.1
                0x00056f98        0x8 arch/arm/cpu/armv7/start.o
 .rel.text.s1_sendpacket.constprop.2
                0x00056fa0       0x18 arch/arm/cpu/armv7/start.o
 .rel.text.load_serial
                0x00056fb8       0x68 arch/arm/cpu/armv7/start.o
 .rel.text.do_load_serial
                0x00057020       0x30 arch/arm/cpu/armv7/start.o
 .rel.text.do_load_serial_bin
                0x00057050       0xe8 arch/arm/cpu/armv7/start.o
 .rel.text.do_mem_mw
                0x00057138        0x8 arch/arm/cpu/armv7/start.o
 .rel.text.do_mem_md
                0x00057140       0x20 arch/arm/cpu/armv7/start.o
 .rel.text.do_mem_cmp
                0x00057160       0x38 arch/arm/cpu/armv7/start.o
 .rel.text.do_mem_base
                0x00057198       0x10 arch/arm/cpu/armv7/start.o
 .rel.text.do_mem_cp
                0x000571a8       0x10 arch/arm/cpu/armv7/start.o
 .rel.text.do_mem_crc
                0x000571b8        0x8 arch/arm/cpu/armv7/start.o
 .rel.text.mod_mem.isra.0
                0x000571c0       0x48 arch/arm/cpu/armv7/start.o
 .rel.text.do_mii
                0x00057208      0x160 arch/arm/cpu/armv7/start.o
 .rel.text.do_mmcops
                0x00057368       0x18 arch/arm/cpu/armv7/start.o
 .rel.text.init_mmc_device
                0x00057380        0x8 arch/arm/cpu/armv7/start.o
 .rel.text.do_mmc_rescan
                0x00057388        0x8 arch/arm/cpu/armv7/start.o
 .rel.text.do_mmc_hwpartition
                0x00057390       0xb0 arch/arm/cpu/armv7/start.o
 .rel.text.do_mmc_dev
                0x00057440       0x38 arch/arm/cpu/armv7/start.o
 .rel.text.do_mmc_part
                0x00057478       0x10 arch/arm/cpu/armv7/start.o
 .rel.text.do_mmc_erase
                0x00057488       0x30 arch/arm/cpu/armv7/start.o
 .rel.text.do_mmc_write
                0x000574b8       0x30 arch/arm/cpu/armv7/start.o
 .rel.text.do_mmc_read
                0x000574e8       0x28 arch/arm/cpu/armv7/start.o
 .rel.text.do_mmcinfo
                0x00057510       0xf8 arch/arm/cpu/armv7/start.o
 .rel.text.do_mmc_setdsr
                0x00057608       0x28 arch/arm/cpu/armv7/start.o
 .rel.text.netboot_common
                0x00057630       0x98 arch/arm/cpu/armv7/start.o
 .rel.text.do_ping
                0x000576c8       0x18 arch/arm/cpu/armv7/start.o
 .rel.text.do_part_list
                0x000576e0       0x28 arch/arm/cpu/armv7/start.o
 .rel.text.do_part_start
                0x00057708       0x10 arch/arm/cpu/armv7/start.o
 .rel.text.do_part_size
                0x00057718       0x10 arch/arm/cpu/armv7/start.o
 .rel.text.do_part
                0x00057728       0x28 arch/arm/cpu/armv7/start.o
 .rel.text.do_pxe
                0x00057750       0x10 arch/arm/cpu/armv7/start.o
 .rel.text.label_print
                0x00057760        0x8 arch/arm/cpu/armv7/start.o
 .rel.text.do_get_tftp
                0x00057768        0x8 arch/arm/cpu/armv7/start.o
 .rel.text.from_env
                0x00057770        0x8 arch/arm/cpu/armv7/start.o
 .rel.text.get_string
                0x00057778        0x8 arch/arm/cpu/armv7/start.o
 .rel.text.get_token
                0x00057780        0x8 arch/arm/cpu/armv7/start.o
 .rel.text.parse_sliteral
                0x00057788        0x8 arch/arm/cpu/armv7/start.o
 .rel.text.parse_integer
                0x00057790        0x8 arch/arm/cpu/armv7/start.o
 .rel.text.do_get_any
                0x00057798       0x10 arch/arm/cpu/armv7/start.o
 .rel.text.do_get_fat
                0x000577a8       0x10 arch/arm/cpu/armv7/start.o
 .rel.text.do_get_ext2
                0x000577b8       0x10 arch/arm/cpu/armv7/start.o
 .rel.text.format_mac_pxe.constprop.6
                0x000577c8       0x10 arch/arm/cpu/armv7/start.o
 .rel.text.get_relfile
                0x000577d8       0x38 arch/arm/cpu/armv7/start.o
 .rel.text.get_pxe_file
                0x00057810        0x8 arch/arm/cpu/armv7/start.o
 .rel.text.handle_include
                0x00057818       0x10 arch/arm/cpu/armv7/start.o
 .rel.text.parse_pxefile_top
                0x00057828      0x150 arch/arm/cpu/armv7/start.o
 .rel.text.get_pxelinux_path
                0x00057978       0x18 arch/arm/cpu/armv7/start.o
 .rel.text.do_pxe_get
                0x00057990       0x48 arch/arm/cpu/armv7/start.o
 .rel.text.label_boot
                0x000579d8       0xf8 arch/arm/cpu/armv7/start.o
 .rel.text.handle_pxe_menu
                0x00057ad0       0x18 arch/arm/cpu/armv7/start.o
 .rel.text.do_pxe_boot
                0x00057ae8       0x38 arch/arm/cpu/armv7/start.o
 .rel.text.do_sysboot
                0x00057b20       0x80 arch/arm/cpu/armv7/start.o
 .rel.text.substitute
                0x00057ba0        0x8 arch/arm/cpu/armv7/start.o
 .rel.text.regex_sub
                0x00057ba8       0x38 arch/arm/cpu/armv7/start.o
 .rel.text.do_setexpr
                0x00057be0       0x18 arch/arm/cpu/armv7/start.o
 .rel.text.do_test
                0x00057bf8       0x70 arch/arm/cpu/armv7/start.o
 .rel.text.usb_get_class_desc
                0x00057c68       0x50 arch/arm/cpu/armv7/start.o
 .rel.text.usb_show_tree_graph
                0x00057cb8       0x48 arch/arm/cpu/armv7/start.o
 .rel.text.usb_display_class_sub
                0x00057d00       0xc8 arch/arm/cpu/armv7/start.o
 .rel.text.usb_display_string
                0x00057dc8        0x8 arch/arm/cpu/armv7/start.o
 .rel.text.usb_display_config
                0x00057dd0       0xa8 arch/arm/cpu/armv7/start.o
 .rel.text.do_usbboot
                0x00057e78        0x8 arch/arm/cpu/armv7/start.o
 .rel.text.usb_display_desc.part.0
                0x00057e80       0x38 arch/arm/cpu/armv7/start.o
 .rel.text.do_usb_start
                0x00057eb8        0x8 arch/arm/cpu/armv7/start.o
 .rel.text.do_usb
                0x00057ec0      0x178 arch/arm/cpu/armv7/start.o
 .rel.text.common_diskboot
                0x00058038       0x28 arch/arm/cpu/armv7/start.o
 .rel.text.do_imgextract
                0x00058060       0x90 arch/arm/cpu/armv7/start.o
 .rel.text.do_env_delete
                0x000580f0       0x10 arch/arm/cpu/armv7/start.o
 .rel.text.do_env_exists
                0x00058100        0x8 arch/arm/cpu/armv7/start.o
 .rel.text.do_env_save
                0x00058108       0x10 arch/arm/cpu/armv7/start.o
 .rel.text.do_env
                0x00058118        0x8 arch/arm/cpu/armv7/start.o
 .rel.text.env_print
                0x00058120       0x18 arch/arm/cpu/armv7/start.o
 .rel.text.do_env_print
                0x00058138       0x10 arch/arm/cpu/armv7/start.o
 .rel.text.do_env_import
                0x00058148       0x58 arch/arm/cpu/armv7/start.o
 .rel.text.do_env_default
                0x000581a0        0x8 arch/arm/cpu/armv7/start.o
 .rel.text._do_env_set.isra.0
                0x000581a8       0x30 arch/arm/cpu/armv7/start.o
 .rel.text.get_env_id
                0x000581d8        0x8 arch/arm/cpu/armv7/start.o
 .rel.text.setenv
                0x000581e0        0x8 arch/arm/cpu/armv7/start.o
 .rel.text.setenv_hex
                0x000581e8        0x8 arch/arm/cpu/armv7/start.o
 .rel.text.do_env_export
                0x000581f0       0x40 arch/arm/cpu/armv7/start.o
 .rel.text.getenv_f
                0x00058230        0x8 arch/arm/cpu/armv7/start.o
 .rel.text.getenv
                0x00058238        0x8 arch/arm/cpu/armv7/start.o
 .rel.text.do_env_edit.part.2
                0x00058240       0x18 arch/arm/cpu/armv7/start.o
 .rel.rodata.op_table
                0x00058258       0x68 arch/arm/cpu/armv7/start.o
 .rel.rodata.desc_and_len_tbl
                0x000582c0       0x30 arch/arm/cpu/armv7/start.o
 .rel.rodata.reg_0_5_desc_tbl
                0x000582f0       0x30 arch/arm/cpu/armv7/start.o
 .rel.rodata.reg_0_desc_tbl
                0x00058320       0x50 arch/arm/cpu/armv7/start.o
 .rel.rodata.reg_1_desc_tbl
                0x00058370       0x80 arch/arm/cpu/armv7/start.o
 .rel.rodata.reg_2_desc_tbl
                0x000583f0        0x8 arch/arm/cpu/armv7/start.o
 .rel.rodata.reg_3_desc_tbl
                0x000583f8       0x18 arch/arm/cpu/armv7/start.o
 .rel.rodata.reg_4_desc_tbl
                0x00058410       0x60 arch/arm/cpu/armv7/start.o
 .rel.rodata.reg_5_desc_tbl
                0x00058470       0x60 arch/arm/cpu/armv7/start.o
 .rel.rodata.keywords
                0x000584d0       0x90 arch/arm/cpu/armv7/start.o
 .rel.rodata.op_adv
                0x00058560       0x80 arch/arm/cpu/armv7/start.o
 .rel.rodata.CSWTCH.30
                0x000585e0       0x28 arch/arm/cpu/armv7/start.o
 .rel.u_boot_list_2_cmd_2_go
                0x00058608       0x20 arch/arm/cpu/armv7/start.o
 .rel.u_boot_list_2_cmd_2_reset
                0x00058628       0x20 arch/arm/cpu/armv7/start.o
 .rel.data.cmd_bootm_sub
                0x00058648       0xd8 arch/arm/cpu/armv7/start.o
 .rel.u_boot_list_2_cmd_2_boot
                0x00058720       0x20 arch/arm/cpu/armv7/start.o
 .rel.u_boot_list_2_cmd_2_bootd
                0x00058740       0x20 arch/arm/cpu/armv7/start.o
 .rel.u_boot_list_2_cmd_2_bootm
                0x00058760       0x20 arch/arm/cpu/armv7/start.o
 .rel.u_boot_list_2_cmd_2_iminfo
                0x00058780       0x20 arch/arm/cpu/armv7/start.o
 .rel.u_boot_list_2_cmd_2_help
                0x000587a0       0x20 arch/arm/cpu/armv7/start.o
 .rel.u_boot_list_2_cmd_2_question_mark
                0x000587c0       0x20 arch/arm/cpu/armv7/start.o
 .rel.u_boot_list_2_cmd_2_version
                0x000587e0       0x20 arch/arm/cpu/armv7/start.o
 .rel.u_boot_list_2_cmd_2_source
                0x00058800       0x20 arch/arm/cpu/armv7/start.o
 .rel.u_boot_list_2_cmd_2_bdinfo
                0x00058820       0x20 arch/arm/cpu/armv7/start.o
 .rel.data.bootefi_device_obj
                0x00058840       0x18 arch/arm/cpu/armv7/start.o
 .rel.data.loaded_image_info
                0x00058858       0x10 arch/arm/cpu/armv7/start.o
 .rel.data.loaded_image_info_obj
                0x00058868       0x28 arch/arm/cpu/armv7/start.o
 .rel.u_boot_list_2_cmd_2_bootefi
                0x00058890       0x20 arch/arm/cpu/armv7/start.o
 .rel.u_boot_list_2_cmd_2_bootz
                0x000588b0       0x20 arch/arm/cpu/armv7/start.o
 .rel.u_boot_list_2_cmd_2_coninfo
                0x000588d0       0x20 arch/arm/cpu/armv7/start.o
 .rel.u_boot_list_2_cmd_2_echo
                0x000588f0       0x20 arch/arm/cpu/armv7/start.o
 .rel.u_boot_list_2_cmd_2_bootelf
                0x00058910       0x20 arch/arm/cpu/armv7/start.o
 .rel.u_boot_list_2_cmd_2_bootvx
                0x00058930       0x20 arch/arm/cpu/armv7/start.o
 .rel.u_boot_list_2_cmd_2_exit
                0x00058950       0x20 arch/arm/cpu/armv7/start.o
 .rel.u_boot_list_2_cmd_2_ext4load
                0x00058970       0x20 arch/arm/cpu/armv7/start.o
 .rel.u_boot_list_2_cmd_2_ext4ls
                0x00058990       0x20 arch/arm/cpu/armv7/start.o
 .rel.u_boot_list_2_cmd_2_ext4size
                0x000589b0       0x20 arch/arm/cpu/armv7/start.o
 .rel.u_boot_list_2_cmd_2_ext2load
                0x000589d0       0x20 arch/arm/cpu/armv7/start.o
 .rel.u_boot_list_2_cmd_2_ext2ls
                0x000589f0       0x20 arch/arm/cpu/armv7/start.o
 .rel.u_boot_list_2_cmd_2_fatinfo
                0x00058a10       0x20 arch/arm/cpu/armv7/start.o
 .rel.u_boot_list_2_cmd_2_fatload
                0x00058a30       0x20 arch/arm/cpu/armv7/start.o
 .rel.u_boot_list_2_cmd_2_fatls
                0x00058a50       0x20 arch/arm/cpu/armv7/start.o
 .rel.u_boot_list_2_cmd_2_fatsize
                0x00058a70       0x20 arch/arm/cpu/armv7/start.o
 .rel.u_boot_list_2_cmd_2_fatwrite
                0x00058a90       0x20 arch/arm/cpu/armv7/start.o
 .rel.u_boot_list_2_cmd_2_fdt
                0x00058ab0       0x20 arch/arm/cpu/armv7/start.o
 .rel.u_boot_list_2_cmd_2_fstype
                0x00058ad0       0x20 arch/arm/cpu/armv7/start.o
 .rel.u_boot_list_2_cmd_2_load
                0x00058af0       0x20 arch/arm/cpu/armv7/start.o
 .rel.u_boot_list_2_cmd_2_ls
                0x00058b10       0x20 arch/arm/cpu/armv7/start.o
 .rel.u_boot_list_2_cmd_2_save
                0x00058b30       0x20 arch/arm/cpu/armv7/start.o
 .rel.u_boot_list_2_cmd_2_size
                0x00058b50       0x20 arch/arm/cpu/armv7/start.o
 .rel.u_boot_list_2_cmd_2_gpio
                0x00058b70       0x20 arch/arm/cpu/armv7/start.o
 .rel.u_boot_list_2_cmd_2_itest
                0x00058b90       0x20 arch/arm/cpu/armv7/start.o
 .rel.u_boot_list_2_cmd_2_loadb
                0x00058bb0       0x20 arch/arm/cpu/armv7/start.o
 .rel.u_boot_list_2_cmd_2_loads
                0x00058bd0       0x20 arch/arm/cpu/armv7/start.o
 .rel.u_boot_list_2_cmd_2_loadx
                0x00058bf0       0x20 arch/arm/cpu/armv7/start.o
 .rel.u_boot_list_2_cmd_2_loady
                0x00058c10       0x20 arch/arm/cpu/armv7/start.o
 .rel.u_boot_list_2_cmd_2_base
                0x00058c30       0x20 arch/arm/cpu/armv7/start.o
 .rel.u_boot_list_2_cmd_2_cmp
                0x00058c50       0x20 arch/arm/cpu/armv7/start.o
 .rel.u_boot_list_2_cmd_2_cp
                0x00058c70       0x20 arch/arm/cpu/armv7/start.o
 .rel.u_boot_list_2_cmd_2_crc32
                0x00058c90       0x20 arch/arm/cpu/armv7/start.o
 .rel.u_boot_list_2_cmd_2_loop
                0x00058cb0       0x20 arch/arm/cpu/armv7/start.o
 .rel.u_boot_list_2_cmd_2_md
                0x00058cd0       0x20 arch/arm/cpu/armv7/start.o
 .rel.u_boot_list_2_cmd_2_mm
                0x00058cf0       0x20 arch/arm/cpu/armv7/start.o
 .rel.u_boot_list_2_cmd_2_mw
                0x00058d10       0x20 arch/arm/cpu/armv7/start.o
 .rel.u_boot_list_2_cmd_2_nm
                0x00058d30       0x20 arch/arm/cpu/armv7/start.o
 .rel.u_boot_list_2_cmd_2_mii
                0x00058d50       0x20 arch/arm/cpu/armv7/start.o
 .rel.u_boot_list_2_cmd_2_sleep
                0x00058d70       0x20 arch/arm/cpu/armv7/start.o
 .rel.data.cmd_mmc
                0x00058d90      0x140 arch/arm/cpu/armv7/start.o
 .rel.u_boot_list_2_cmd_2_mmc
                0x00058ed0       0x20 arch/arm/cpu/armv7/start.o
 .rel.u_boot_list_2_cmd_2_mmcinfo
                0x00058ef0       0x20 arch/arm/cpu/armv7/start.o
 .rel.u_boot_list_2_cmd_2_bootp
                0x00058f10       0x20 arch/arm/cpu/armv7/start.o
 .rel.u_boot_list_2_cmd_2_dhcp
                0x00058f30       0x20 arch/arm/cpu/armv7/start.o
 .rel.u_boot_list_2_cmd_2_nfs
                0x00058f50       0x20 arch/arm/cpu/armv7/start.o
 .rel.u_boot_list_2_cmd_2_ping
                0x00058f70       0x20 arch/arm/cpu/armv7/start.o
 .rel.u_boot_list_2_cmd_2_tftpboot
                0x00058f90       0x20 arch/arm/cpu/armv7/start.o
 .rel.u_boot_list_2_cmd_2_part
                0x00058fb0       0x20 arch/arm/cpu/armv7/start.o
 .rel.data.cmd_pxe_sub
                0x00058fd0       0x40 arch/arm/cpu/armv7/start.o
 .rel.data.pxe_default_paths
                0x00059010       0x18 arch/arm/cpu/armv7/start.o
 .rel.u_boot_list_2_cmd_2_pxe
                0x00059028       0x20 arch/arm/cpu/armv7/start.o
 .rel.u_boot_list_2_cmd_2_sysboot
                0x00059048       0x20 arch/arm/cpu/armv7/start.o
 .rel.u_boot_list_2_cmd_2_setexpr
                0x00059068       0x20 arch/arm/cpu/armv7/start.o
 .rel.u_boot_list_2_cmd_2_false
                0x00059088       0x18 arch/arm/cpu/armv7/start.o
 .rel.u_boot_list_2_cmd_2_test
                0x000590a0       0x20 arch/arm/cpu/armv7/start.o
 .rel.u_boot_list_2_cmd_2_true
                0x000590c0       0x18 arch/arm/cpu/armv7/start.o
 .rel.u_boot_list_2_cmd_2_usb
                0x000590d8       0x20 arch/arm/cpu/armv7/start.o
 .rel.u_boot_list_2_cmd_2_usbboot
                0x000590f8       0x20 arch/arm/cpu/armv7/start.o
 .rel.u_boot_list_2_cmd_2_imxtract
                0x00059118       0x20 arch/arm/cpu/armv7/start.o
 .rel.data.cmd_env_sub
                0x00059138      0x140 arch/arm/cpu/armv7/start.o
 .rel.u_boot_list_2_cmd_2_editenv
                0x00059278       0x28 arch/arm/cpu/armv7/start.o
 .rel.u_boot_list_2_cmd_2_env
                0x000592a0       0x20 arch/arm/cpu/armv7/start.o
 .rel.u_boot_list_2_cmd_2_printenv
                0x000592c0       0x28 arch/arm/cpu/armv7/start.o
 .rel.u_boot_list_2_cmd_2_run
                0x000592e8       0x28 arch/arm/cpu/armv7/start.o
 .rel.u_boot_list_2_cmd_2_saveenv
                0x00059310       0x20 arch/arm/cpu/armv7/start.o
 .rel.u_boot_list_2_cmd_2_setenv
                0x00059330       0x28 arch/arm/cpu/armv7/start.o
 .rel.text.main_loop
                0x00059358       0x10 arch/arm/cpu/armv7/start.o
 .rel.text.jumptable_init
                0x00059368       0xc0 arch/arm/cpu/armv7/start.o
 .rel.text.hash_lookup_algo
                0x00059428        0x0 arch/arm/cpu/armv7/start.o
 .rel.text.hash_progressive_lookup_algo
                0x00059428        0x0 arch/arm/cpu/armv7/start.o
 .rel.text.hash_command
                0x00059428        0x8 arch/arm/cpu/armv7/start.o
 .rel.text.mapset
                0x00059430        0x8 arch/arm/cpu/armv7/start.o
 .rel.text.syntax_err
                0x00059438        0x8 arch/arm/cpu/armv7/start.o
 .rel.text.xmalloc
                0x00059440        0x8 arch/arm/cpu/armv7/start.o
 .rel.text.xrealloc
                0x00059448        0x8 arch/arm/cpu/armv7/start.o
 .rel.text.done_word
                0x00059450        0x8 arch/arm/cpu/armv7/start.o
 .rel.text.do_showvar
                0x00059458       0x20 arch/arm/cpu/armv7/start.o
 .rel.text.is_assignment
                0x00059478        0x8 arch/arm/cpu/armv7/start.o
 .rel.text.file_get
                0x00059480       0x30 arch/arm/cpu/armv7/start.o
 .rel.text.b_addqchr
                0x000594b0        0x8 arch/arm/cpu/armv7/start.o
 .rel.text.get_local_var
                0x000594b8       0x20 arch/arm/cpu/armv7/start.o
 .rel.text.set_local_var
                0x000594d8       0x20 arch/arm/cpu/armv7/start.o
 .rel.text.insert_var_value_sub
                0x000594f8        0x8 arch/arm/cpu/armv7/start.o
 .rel.text.unset_local_var
                0x00059500        0x0 arch/arm/cpu/armv7/start.o
 .rel.text.parse_string_outer
                0x00059500       0x18 arch/arm/cpu/armv7/start.o
 .rel.text.run_list_real
                0x00059518       0x40 arch/arm/cpu/armv7/start.o
 .rel.text.parse_stream_outer
                0x00059558       0x68 arch/arm/cpu/armv7/start.o
 .rel.text.parse_file_outer
                0x000595c0       0x10 arch/arm/cpu/armv7/start.o
 .rel.text.u_boot_hush_start
                0x000595d0       0x18 arch/arm/cpu/armv7/start.o
 .rel.text.bootdelay_process
                0x000595e8       0x38 arch/arm/cpu/armv7/start.o
 .rel.text.autoboot_command
                0x00059620       0x20 arch/arm/cpu/armv7/start.o
 .rel.text.setup_mon_len
                0x00059640       0x10 arch/arm/cpu/armv7/start.o
 .rel.text.announce_dram_init
                0x00059650        0x8 arch/arm/cpu/armv7/start.o
 .rel.text.init_baud_rate
                0x00059658        0x8 arch/arm/cpu/armv7/start.o
 .rel.text.show_dram_config
                0x00059660        0x8 arch/arm/cpu/armv7/start.o
 .rel.text.board_init_f
                0x00059668        0x8 arch/arm/cpu/armv7/start.o
 .rel.text.initr_net
                0x00059670        0x8 arch/arm/cpu/armv7/start.o
 .rel.text.initr_ethaddr
                0x00059678        0x8 arch/arm/cpu/armv7/start.o
 .rel.text.initr_env
                0x00059680       0x20 arch/arm/cpu/armv7/start.o
 .rel.text.initr_mmc
                0x000596a0        0x8 arch/arm/cpu/armv7/start.o
 .rel.text.initr_reloc_global_data
                0x000596a8       0x18 arch/arm/cpu/armv7/start.o
 .rel.text.board_init_r
                0x000596c0        0x8 arch/arm/cpu/armv7/start.o
 .rel.text.bootm_find_images
                0x000596c8       0x18 arch/arm/cpu/armv7/start.o
 .rel.text.bootm_decomp_image
                0x000596e0       0x48 arch/arm/cpu/armv7/start.o
 .rel.text.do_bootm_states
                0x00059728       0xc0 arch/arm/cpu/armv7/start.o
 .rel.text.do_bootm_rtems
                0x000597e8        0x8 arch/arm/cpu/armv7/start.o
 .rel.text.do_bootm_plan9
                0x000597f0       0x18 arch/arm/cpu/armv7/start.o
 .rel.text.do_bootm_standalone
                0x00059808       0x18 arch/arm/cpu/armv7/start.o
 .rel.text.do_bootm_qnxelf
                0x00059820        0x8 arch/arm/cpu/armv7/start.o
 .rel.text.do_bootm_netbsd
                0x00059828       0x18 arch/arm/cpu/armv7/start.o
 .rel.text.do_bootvx_fdt
                0x00059840       0x38 arch/arm/cpu/armv7/start.o
 .rel.text.bootm_os_get_boot_func
                0x00059878        0x8 arch/arm/cpu/armv7/start.o
 .rel.text.regex_callback
                0x00059880       0x10 arch/arm/cpu/armv7/start.o
 .rel.text.env_attr_lookup
                0x00059890        0x8 arch/arm/cpu/armv7/start.o
 .rel.text.find_env_callback
                0x00059898       0x10 arch/arm/cpu/armv7/start.o
 .rel.text.on_callbacks
                0x000598a8       0x20 arch/arm/cpu/armv7/start.o
 .rel.text.set_callback
                0x000598c8        0x8 arch/arm/cpu/armv7/start.o
 .rel.text.env_callback_init
                0x000598d0       0x20 arch/arm/cpu/armv7/start.o
 .rel.text.skip_num
                0x000598f0        0x8 arch/arm/cpu/armv7/start.o
 .rel.text.on_flags
                0x000598f8       0x20 arch/arm/cpu/armv7/start.o
 .rel.text.env_flags_parse_vartype
                0x00059918       0x10 arch/arm/cpu/armv7/start.o
 .rel.text.env_flags_parse_varaccess
                0x00059928       0x10 arch/arm/cpu/armv7/start.o
 .rel.text.set_flags
                0x00059938       0x10 arch/arm/cpu/armv7/start.o
 .rel.text.env_flags_parse_varaccess_from_binflags
                0x00059948        0x0 arch/arm/cpu/armv7/start.o
 .rel.text.env_flags_init
                0x00059948       0x30 arch/arm/cpu/armv7/start.o
 .rel.text.env_flags_validate
                0x00059978       0x68 arch/arm/cpu/armv7/start.o
 .rel.text.env_init
                0x000599e0        0x8 arch/arm/cpu/armv7/start.o
 .rel.text.saveenv
                0x000599e8       0x30 arch/arm/cpu/armv7/start.o
 .rel.text.env_relocate_spec
                0x00059a18       0x28 arch/arm/cpu/armv7/start.o
 .rel.text.of_bus_default_count_cells
                0x00059a40        0x8 arch/arm/cpu/armv7/start.o
 .rel.text.fdt_find_or_add_subnode
                0x00059a48       0x10 arch/arm/cpu/armv7/start.o
 .rel.text.fdt_root
                0x00059a58       0x20 arch/arm/cpu/armv7/start.o
 .rel.text.fdt_initrd
                0x00059a78       0x30 arch/arm/cpu/armv7/start.o
 .rel.text.fdt_chosen
                0x00059aa8       0x20 arch/arm/cpu/armv7/start.o
 .rel.text.do_fixup_by_path
                0x00059ac8        0x8 arch/arm/cpu/armv7/start.o
 .rel.text.fdt_fixup_memory_banks
                0x00059ad0       0x38 arch/arm/cpu/armv7/start.o
 .rel.text.fdt_fixup_ethernet
                0x00059b08       0x30 arch/arm/cpu/armv7/start.o
 .rel.text.fdt_del_node_and_alias
                0x00059b38        0x0 arch/arm/cpu/armv7/start.o
 .rel.text.fdt_translate_address
                0x00059b38       0x20 arch/arm/cpu/armv7/start.o
 .rel.text.fdt_node_offset_by_compat_reg
                0x00059b58        0x0 arch/arm/cpu/armv7/start.o
 .rel.text.fdt_set_phandle
                0x00059b58        0x0 arch/arm/cpu/armv7/start.o
 .rel.text.fdt_create_phandle
                0x00059b58        0x0 arch/arm/cpu/armv7/start.o
 .rel.text.fdt_set_node_status
                0x00059b58        0x0 arch/arm/cpu/armv7/start.o
 .rel.text.fdt_add_edid
                0x00059b58        0x0 arch/arm/cpu/armv7/start.o
 .rel.text.fdt_verify_alias_address
                0x00059b58        0x0 arch/arm/cpu/armv7/start.o
 .rel.text.fdt_get_base_address
                0x00059b58        0x0 arch/arm/cpu/armv7/start.o
 .rel.text.fdt_read_range
                0x00059b58        0x0 arch/arm/cpu/armv7/start.o
 .rel.text.fdt_setup_simplefb_node
                0x00059b58       0x40 arch/arm/cpu/armv7/start.o
 .rel.text.fdt_fixup_display
                0x00059b98        0x0 arch/arm/cpu/armv7/start.o
 .rel.text.miiphy_get_dev_by_name
                0x00059b98       0x10 arch/arm/cpu/armv7/start.o
 .rel.text.miiphy_init
                0x00059ba8       0x10 arch/arm/cpu/armv7/start.o
 .rel.text.mdio_register
                0x00059bb8        0x0 arch/arm/cpu/armv7/start.o
 .rel.text.mdio_register_seq
                0x00059bb8        0x0 arch/arm/cpu/armv7/start.o
 .rel.text.mdio_unregister
                0x00059bb8        0x0 arch/arm/cpu/armv7/start.o
 .rel.text.mdio_list_devices
                0x00059bb8        0x0 arch/arm/cpu/armv7/start.o
 .rel.text.miiphy_set_current_dev
                0x00059bb8       0x10 arch/arm/cpu/armv7/start.o
 .rel.text.miiphy_get_active_dev
                0x00059bc8        0x8 arch/arm/cpu/armv7/start.o
 .rel.text.mdio_get_current_dev
                0x00059bd0        0x0 arch/arm/cpu/armv7/start.o
 .rel.text.mdio_phydev_for_ethname
                0x00059bd0        0x0 arch/arm/cpu/armv7/start.o
 .rel.text.miiphy_get_current_dev
                0x00059bd0        0x8 arch/arm/cpu/armv7/start.o
 .rel.text.miiphy_listdev
                0x00059bd8       0x30 arch/arm/cpu/armv7/start.o
 .rel.text.miiphy_reset
                0x00059c08        0x0 arch/arm/cpu/armv7/start.o
 .rel.text.miiphy_speed
                0x00059c08       0x20 arch/arm/cpu/armv7/start.o
 .rel.text.miiphy_duplex
                0x00059c28       0x20 arch/arm/cpu/armv7/start.o
 .rel.text.usb_stop
                0x00059c48       0x18 arch/arm/cpu/armv7/start.o
 .rel.text.usb_detect_change
                0x00059c60        0x0 arch/arm/cpu/armv7/start.o
 .rel.text.usb_disable_asynch
                0x00059c60        0x8 arch/arm/cpu/armv7/start.o
 .rel.text.usb_control_msg
                0x00059c68        0x8 arch/arm/cpu/armv7/start.o
 .rel.text.get_descriptor_len
                0x00059c70       0x10 arch/arm/cpu/armv7/start.o
 .rel.text.usb_string_sub
                0x00059c80        0x8 arch/arm/cpu/armv7/start.o
 .rel.text.usb_get_configuration_len
                0x00059c88       0x10 arch/arm/cpu/armv7/start.o
 .rel.text.usb_set_interface
                0x00059c98        0x8 arch/arm/cpu/armv7/start.o
 .rel.text.usb_get_dev_index
                0x00059ca0        0x8 arch/arm/cpu/armv7/start.o
 .rel.text.usb_alloc_new_device
                0x00059ca8       0x18 arch/arm/cpu/armv7/start.o
 .rel.text.usb_free_device
                0x00059cc0       0x10 arch/arm/cpu/armv7/start.o
 .rel.text.usb_select_config
                0x00059cd0       0x70 arch/arm/cpu/armv7/start.o
 .rel.text.usb_setup_device
                0x00059d40       0x18 arch/arm/cpu/armv7/start.o
 .rel.text.usb_init
                0x00059d58       0x58 arch/arm/cpu/armv7/start.o
 .rel.text.usb_find_usb2_hub_address_port
                0x00059db0        0x8 arch/arm/cpu/armv7/start.o
 .rel.text.usb_hub_reset
                0x00059db8       0x10 arch/arm/cpu/armv7/start.o
 .rel.text.usb_hub_port_connect_change
                0x00059dc8       0x10 arch/arm/cpu/armv7/start.o
 .rel.text.usb_hub_configure
                0x00059dd8       0x40 arch/arm/cpu/armv7/start.o
 .rel.text.usb_stor_BBB_transport
                0x00059e18       0x10 arch/arm/cpu/armv7/start.o
 .rel.text.usb_stor_CB_comdat
                0x00059e28        0x8 arch/arm/cpu/armv7/start.o
 .rel.text.usb_stor_CBI_get_status.isra.4
                0x00059e30        0x8 arch/arm/cpu/armv7/start.o
 .rel.text.usb_stor_CB_transport
                0x00059e38       0x10 arch/arm/cpu/armv7/start.o
 .rel.text.usb_request_sense.constprop.10
                0x00059e48        0x8 arch/arm/cpu/armv7/start.o
 .rel.text.usb_stor_read
                0x00059e50       0x10 arch/arm/cpu/armv7/start.o
 .rel.text.usb_stor_write
                0x00059e60       0x10 arch/arm/cpu/armv7/start.o
 .rel.text.usb_stor_info
                0x00059e70       0x20 arch/arm/cpu/armv7/start.o
 .rel.text.usb_stor_reset
                0x00059e90        0x0 arch/arm/cpu/armv7/start.o
 .rel.text.usb_storage_probe
                0x00059e90       0x38 arch/arm/cpu/armv7/start.o
 .rel.text.usb_stor_get_info
                0x00059ec8       0x20 arch/arm/cpu/armv7/start.o
 .rel.text.usb_stor_scan
                0x00059ee8       0x40 arch/arm/cpu/armv7/start.o
 .rel.text.iomux_printdevs
                0x00059f28        0x0 arch/arm/cpu/armv7/start.o
 .rel.text.iomux_doenv
                0x00059f28       0x10 arch/arm/cpu/armv7/start.o
 .rel.text.lcd_set_flush_dcache
                0x00059f38        0x8 arch/arm/cpu/armv7/start.o
 .rel.text.lcd_get_size
                0x00059f40       0x10 arch/arm/cpu/armv7/start.o
 .rel.text.lcd_sync
                0x00059f50       0x10 arch/arm/cpu/armv7/start.o
 .rel.text.lcd_clear
                0x00059f60       0x38 arch/arm/cpu/armv7/start.o
 .rel.text.drv_lcd_init
                0x00059f98       0x30 arch/arm/cpu/armv7/start.o
 .rel.text.lcd_getfgcolor
                0x00059fc8        0x8 arch/arm/cpu/armv7/start.o
 .rel.text.lcd_getbgcolor
                0x00059fd0        0x8 arch/arm/cpu/armv7/start.o
 .rel.text.lcd_get_pixel_width
                0x00059fd8        0x8 arch/arm/cpu/armv7/start.o
 .rel.text.lcd_get_pixel_height
                0x00059fe0        0x8 arch/arm/cpu/armv7/start.o
 .rel.text.lcd_putc_xy0
                0x00059fe8        0x8 arch/arm/cpu/armv7/start.o
 .rel.text.lcd_set_col
                0x00059ff0        0x8 arch/arm/cpu/armv7/start.o
 .rel.text.lcd_set_row
                0x00059ff8        0x8 arch/arm/cpu/armv7/start.o
 .rel.text.lcd_position_cursor
                0x0005a000        0x8 arch/arm/cpu/armv7/start.o
 .rel.text.lcd_get_screen_rows
                0x0005a008        0x0 arch/arm/cpu/armv7/start.o
 .rel.text.lcd_get_screen_columns
                0x0005a008        0x0 arch/arm/cpu/armv7/start.o
 .rel.text.lcd_init_console
                0x0005a008       0x20 arch/arm/cpu/armv7/start.o
 .rel.text.lcd_putc
                0x0005a028       0x40 arch/arm/cpu/armv7/start.o
 .rel.text.lcd_puts
                0x0005a068        0x8 arch/arm/cpu/armv7/start.o
 .rel.text.lcd_dt_simplefb_configure_node
                0x0005a070        0x8 arch/arm/cpu/armv7/start.o
 .rel.text.lcd_dt_simplefb_add_node
                0x0005a078       0x28 arch/arm/cpu/armv7/start.o
 .rel.text.lcd_dt_simplefb_enable_existing_node
                0x0005a0a0        0x0 arch/arm/cpu/armv7/start.o
 .rel.text.menu_get_choice
                0x0005a0a0       0x18 arch/arm/cpu/armv7/start.o
 .rel.text.usb_kbd_translate.part.0
                0x0005a0b8       0x20 arch/arm/cpu/armv7/start.o
 .rel.text.usb_kbd_testc
                0x0005a0d8       0x18 arch/arm/cpu/armv7/start.o
 .rel.text.usb_kbd_getc
                0x0005a0f0        0x8 arch/arm/cpu/armv7/start.o
 .rel.text.drv_usb_kbd_init
                0x0005a0f8       0x38 arch/arm/cpu/armv7/start.o
 .rel.text.usb_kbd_deregister
                0x0005a130       0x10 arch/arm/cpu/armv7/start.o
 .rel.text.env_get_addr
                0x0005a140        0x8 arch/arm/cpu/armv7/start.o
 .rel.text.env_get_char
                0x0005a148        0x8 arch/arm/cpu/armv7/start.o
 .rel.text.set_default_env
                0x0005a150       0x40 arch/arm/cpu/armv7/start.o
 .rel.text.set_default_vars
                0x0005a190       0x10 arch/arm/cpu/armv7/start.o
 .rel.text.env_import
                0x0005a1a0       0x38 arch/arm/cpu/armv7/start.o
 .rel.text.env_export
                0x0005a1d8       0x28 arch/arm/cpu/armv7/start.o
 .rel.text.env_relocate
                0x0005a200        0x8 arch/arm/cpu/armv7/start.o
 .rel.text.env_complete
                0x0005a208       0x18 arch/arm/cpu/armv7/start.o
 .rel.text.console_tstc
                0x0005a220       0x20 arch/arm/cpu/armv7/start.o
 .rel.text.console_putc
                0x0005a240       0x10 arch/arm/cpu/armv7/start.o
 .rel.text.console_puts
                0x0005a250       0x10 arch/arm/cpu/armv7/start.o
 .rel.text.on_console
                0x0005a260       0x20 arch/arm/cpu/armv7/start.o
 .rel.text.console_getc.isra.0
                0x0005a280        0x8 arch/arm/cpu/armv7/start.o
 .rel.text.getc
                0x0005a288        0x8 arch/arm/cpu/armv7/start.o
 .rel.text.fgetc
                0x0005a290        0x0 arch/arm/cpu/armv7/start.o
 .rel.text.ctrlc
                0x0005a290       0x10 arch/arm/cpu/armv7/start.o
 .rel.text.confirm_yesno
                0x0005a2a0        0x0 arch/arm/cpu/armv7/start.o
 .rel.text.disable_ctrlc
                0x0005a2a0        0x8 arch/arm/cpu/armv7/start.o
 .rel.text.had_ctrlc
                0x0005a2a8        0x8 arch/arm/cpu/armv7/start.o
 .rel.text.clear_ctrlc
                0x0005a2b0        0x8 arch/arm/cpu/armv7/start.o
 .rel.text.console_assign
                0x0005a2b8       0x30 arch/arm/cpu/armv7/start.o
 .rel.text.stdio_print_current_devices
                0x0005a2e8       0x40 arch/arm/cpu/armv7/start.o
 .rel.text.console_init_r
                0x0005a328       0x48 arch/arm/cpu/armv7/start.o
 .rel.text.sbrk
                0x0005a370       0x18 arch/arm/cpu/armv7/start.o
 .rel.text.mem_malloc_init
                0x0005a388       0x18 arch/arm/cpu/armv7/start.o
 .rel.text.malloc_trim
                0x0005a3a0       0x18 arch/arm/cpu/armv7/start.o
 .rel.text.free
                0x0005a3b8       0x20 arch/arm/cpu/armv7/start.o
 .rel.text.malloc
                0x0005a3d8       0x48 arch/arm/cpu/armv7/start.o
 .rel.text.calloc
                0x0005a420        0x8 arch/arm/cpu/armv7/start.o
 .rel.text.realloc
                0x0005a428       0x10 arch/arm/cpu/armv7/start.o
 .rel.text.mallopt
                0x0005a438        0x0 arch/arm/cpu/armv7/start.o
 .rel.text.on_loadaddr
                0x0005a438        0x8 arch/arm/cpu/armv7/start.o
 .rel.text.getenv_bootm_low
                0x0005a440        0x8 arch/arm/cpu/armv7/start.o
 .rel.text.getenv_bootm_size
                0x0005a448       0x10 arch/arm/cpu/armv7/start.o
 .rel.text.getenv_bootm_mapsize
                0x0005a458        0x8 arch/arm/cpu/armv7/start.o
 .rel.text.genimg_print_size
                0x0005a460       0x10 arch/arm/cpu/armv7/start.o
 .rel.text.genimg_get_short_name
                0x0005a470        0x0 arch/arm/cpu/armv7/start.o
 .rel.text.genimg_get_cat_name
                0x0005a470        0x0 arch/arm/cpu/armv7/start.o
 .rel.text.genimg_get_cat_short_name
                0x0005a470        0x0 arch/arm/cpu/armv7/start.o
 .rel.text.genimg_get_cat_count
                0x0005a470        0x0 arch/arm/cpu/armv7/start.o
 .rel.text.genimg_get_cat_desc
                0x0005a470        0x0 arch/arm/cpu/armv7/start.o
 .rel.text.genimg_get_os_name
                0x0005a470       0x10 arch/arm/cpu/armv7/start.o
 .rel.text.genimg_get_arch_name
                0x0005a480       0x10 arch/arm/cpu/armv7/start.o
 .rel.text.genimg_get_type_name
                0x0005a490       0x10 arch/arm/cpu/armv7/start.o
 .rel.text.genimg_get_type_short_name
                0x0005a4a0        0x0 arch/arm/cpu/armv7/start.o
 .rel.text.genimg_get_comp_name
                0x0005a4a0       0x10 arch/arm/cpu/armv7/start.o
 .rel.text.image_print_contents
                0x0005a4b0       0x58 arch/arm/cpu/armv7/start.o
 .rel.text.genimg_get_comp_short_name
                0x0005a508        0x0 arch/arm/cpu/armv7/start.o
 .rel.text.genimg_get_os_short_name
                0x0005a508        0x0 arch/arm/cpu/armv7/start.o
 .rel.text.genimg_get_arch_short_name
                0x0005a508        0x0 arch/arm/cpu/armv7/start.o
 .rel.text.genimg_get_os_id
                0x0005a508        0x0 arch/arm/cpu/armv7/start.o
 .rel.text.genimg_get_arch_id
                0x0005a508        0x0 arch/arm/cpu/armv7/start.o
 .rel.text.genimg_get_type_id
                0x0005a508        0x0 arch/arm/cpu/armv7/start.o
 .rel.text.genimg_get_comp_id
                0x0005a508        0x0 arch/arm/cpu/armv7/start.o
 .rel.text.genimg_get_kernel_addr_fit
                0x0005a508        0x8 arch/arm/cpu/armv7/start.o
 .rel.text.boot_get_ramdisk
                0x0005a510       0x50 arch/arm/cpu/armv7/start.o
 .rel.text.boot_ramdisk_high
                0x0005a560       0x20 arch/arm/cpu/armv7/start.o
 .rel.text.fdt_error
                0x0005a580       0x10 arch/arm/cpu/armv7/start.o
 .rel.text.boot_fdt_add_mem_rsv_regions
                0x0005a590        0x8 arch/arm/cpu/armv7/start.o
 .rel.text.boot_relocate_fdt
                0x0005a598       0x40 arch/arm/cpu/armv7/start.o
 .rel.text.boot_get_fdt
                0x0005a5d8       0x80 arch/arm/cpu/armv7/start.o
 .rel.text.image_setup_libfdt
                0x0005a658       0x28 arch/arm/cpu/armv7/start.o
 .rel.text.stdio_get_list
                0x0005a680        0x8 arch/arm/cpu/armv7/start.o
 .rel.text.stdio_get_by_name
                0x0005a688        0x8 arch/arm/cpu/armv7/start.o
 .rel.text.stdio_register_dev
                0x0005a690        0x8 arch/arm/cpu/armv7/start.o
 .rel.text.stdio_deregister_dev
                0x0005a698       0x18 arch/arm/cpu/armv7/start.o
 .rel.text.stdio_init_tables
                0x0005a6b0        0x8 arch/arm/cpu/armv7/start.o
 .rel.text.stdio_add_devices
                0x0005a6b8       0x48 arch/arm/cpu/armv7/start.o
 .rel.text.cli_simple_parse_line
                0x0005a700        0x0 arch/arm/cpu/armv7/start.o
 .rel.text.cli_simple_run_command
                0x0005a700        0x0 arch/arm/cpu/armv7/start.o
 .rel.text.cli_simple_loop
                0x0005a700        0x0 arch/arm/cpu/armv7/start.o
 .rel.text.do_run
                0x0005a700        0x8 arch/arm/cpu/armv7/start.o
 .rel.text.cli_process_fdt
                0x0005a708       0x10 arch/arm/cpu/armv7/start.o
 .rel.text.cli_secure_boot_cmd
                0x0005a718       0x18 arch/arm/cpu/armv7/start.o
 .rel.text.delete_char.part.0
                0x0005a730       0x10 arch/arm/cpu/armv7/start.o
 .rel.text.cread_add_char
                0x0005a740        0x8 arch/arm/cpu/armv7/start.o
 .rel.text.cli_readline_into_buffer
                0x0005a748      0x178 arch/arm/cpu/armv7/start.o
 .rel.text.cli_readline
                0x0005a8c0        0x8 arch/arm/cpu/armv7/start.o
 .rel.text.find_cmd
                0x0005a8c8       0x10 arch/arm/cpu/armv7/start.o
 .rel.text.cmd_usage
                0x0005a8d8       0x18 arch/arm/cpu/armv7/start.o
 .rel.text._do_help
                0x0005a8f0       0x10 arch/arm/cpu/armv7/start.o
 .rel.text.var_complete
                0x0005a900       0x10 arch/arm/cpu/armv7/start.o
 .rel.text.cmd_auto_complete
                0x0005a910       0x48 arch/arm/cpu/armv7/start.o
 .rel.text.cmd_get_data_size
                0x0005a958        0x8 arch/arm/cpu/armv7/start.o
 .rel.text.cmd_process
                0x0005a960       0x18 arch/arm/cpu/armv7/start.o
 .rel.text.cmd_process_error
                0x0005a978        0x8 arch/arm/cpu/armv7/start.o
 .rel.text.srec_decode
                0x0005a980       0x50 arch/arm/cpu/armv7/start.o
 .rel.text.xyzModem_get_hdr
                0x0005a9d0       0x30 arch/arm/cpu/armv7/start.o
 .rel.text.xyzModem_stream_open
                0x0005aa00       0x10 arch/arm/cpu/armv7/start.o
 .rel.text.xyzModem_stream_read
                0x0005aa10        0x8 arch/arm/cpu/armv7/start.o
 .rel.text.xyzModem_stream_close
                0x0005aa18       0x20 arch/arm/cpu/armv7/start.o
 .rel.text.xyzModem_stream_terminate
                0x0005aa38        0x8 arch/arm/cpu/armv7/start.o
 .rel.text.xyzModem_error
                0x0005aa40       0x10 arch/arm/cpu/armv7/start.o
 .rel.rodata.boot_os
                0x0005aa50       0x38 arch/arm/cpu/armv7/start.o
 .rel.rodata.table_info
                0x0005aa88        0x0 arch/arm/cpu/armv7/start.o
 .rel.rodata.uimage_arch
                0x0005aa88      0x1a0 arch/arm/cpu/armv7/start.o
 .rel.rodata.uimage_comp
                0x0005ac28       0x70 arch/arm/cpu/armv7/start.o
 .rel.rodata.uimage_os
                0x0005ac98       0xa0 arch/arm/cpu/armv7/start.o
 .rel.rodata.uimage_type
                0x0005ad38      0x200 arch/arm/cpu/armv7/start.o
 .rel.rodata.CSWTCH.28
                0x0005af38       0x40 arch/arm/cpu/armv7/start.o
 .rel.data.hash_algo
                0x0005af78        0x0 arch/arm/cpu/armv7/start.o
 .rel.data.reserved_list
                0x0005af78       0x58 arch/arm/cpu/armv7/start.o
 .rel.u_boot_list_2_cmd_2_showvar
                0x0005afd0       0x20 arch/arm/cpu/armv7/start.o
 .rel.data.init_sequence_f
                0x0005aff0      0x128 arch/arm/cpu/armv7/start.o
 .rel.data.init_sequence_r
                0x0005b118       0xe0 arch/arm/cpu/armv7/start.o
 .rel.u_boot_list_2_env_clbk_2_callbacks
                0x0005b1f8       0x10 arch/arm/cpu/armv7/start.o
 .rel.u_boot_list_2_env_clbk_2_flags
                0x0005b208       0x10 arch/arm/cpu/armv7/start.o
 .rel.data.env_name_spec
                0x0005b218        0x8 arch/arm/cpu/armv7/start.o
 .rel.data.of_busses
                0x0005b220       0x28 arch/arm/cpu/armv7/start.o
 .rel.data.usb_scan_list
                0x0005b248       0x10 arch/arm/cpu/armv7/start.o
 .rel.u_boot_list_2_blk_driver_2_usb
                0x0005b258       0x10 arch/arm/cpu/armv7/start.o
 .rel.u_boot_list_2_cmd_2_cls
                0x0005b268       0x20 arch/arm/cpu/armv7/start.o
 .rel.u_boot_list_2_cmd_2_lcdputs
                0x0005b288       0x20 arch/arm/cpu/armv7/start.o
 .rel.u_boot_list_2_cmd_2_setcurs
                0x0005b2a8       0x20 arch/arm/cpu/armv7/start.o
 .rel.data.env_htab
                0x0005b2c8        0x8 arch/arm/cpu/armv7/start.o
 .rel.u_boot_list_2_env_clbk_2_console
                0x0005b2d0       0x10 arch/arm/cpu/armv7/start.o
 .rel.data.av_  0x0005b2e0      0x800 arch/arm/cpu/armv7/start.o
 .rel.u_boot_list_2_env_clbk_2_loadaddr
                0x0005bae0       0x10 arch/arm/cpu/armv7/start.o
 .rel.data.stdio_names
                0x0005baf0       0x18 arch/arm/cpu/armv7/start.o
 .rel.text.dev_print
                0x0005bb08      0x110 arch/arm/cpu/armv7/start.o
 .rel.text.part_init
                0x0005bc18       0x10 arch/arm/cpu/armv7/start.o
 .rel.text.part_print
                0x0005bc28       0xb8 arch/arm/cpu/armv7/start.o
 .rel.text.part_get_info
                0x0005bce0       0x10 arch/arm/cpu/armv7/start.o
 .rel.text.blk_get_device_by_str
                0x0005bcf0       0x18 arch/arm/cpu/armv7/start.o
 .rel.text.blk_get_device_part_str
                0x0005bd08       0x60 arch/arm/cpu/armv7/start.o
 .rel.text.part_get_info_by_name
                0x0005bd68        0x0 arch/arm/cpu/armv7/start.o
 .rel.text.part_set_generic_name
                0x0005bd68       0x18 arch/arm/cpu/armv7/start.o
 .rel.text.test_block_type
                0x0005bd80       0x10 arch/arm/cpu/armv7/start.o
 .rel.text.print_partition_extended
                0x0005bd90       0x30 arch/arm/cpu/armv7/start.o
 .rel.text.part_print_dos
                0x0005bdc0        0x8 arch/arm/cpu/armv7/start.o
 .rel.text.part_get_info_extended
                0x0005bdc8       0x20 arch/arm/cpu/armv7/start.o
 .rel.text.write_mbr_partition
                0x0005bde8        0x0 arch/arm/cpu/armv7/start.o
 .rel.text.part_get_info_iso_verb
                0x0005bde8       0x98 arch/arm/cpu/armv7/start.o
 .rel.text.part_print_iso
                0x0005be80       0x18 arch/arm/cpu/armv7/start.o
 .rel.text.print_efiname
                0x0005be98       0x10 arch/arm/cpu/armv7/start.o
 .rel.text.set_protective_mbr
                0x0005bea8        0x0 arch/arm/cpu/armv7/start.o
 .rel.text.validate_gpt_entries
                0x0005bea8       0x10 arch/arm/cpu/armv7/start.o
 .rel.text.validate_gpt_header
                0x0005beb8       0x30 arch/arm/cpu/armv7/start.o
 .rel.text.is_gpt_valid
                0x0005bee8       0x38 arch/arm/cpu/armv7/start.o
 .rel.text.is_pte_valid
                0x0005bf20       0x10 arch/arm/cpu/armv7/start.o
 .rel.text.part_print_efi
                0x0005bf30       0x60 arch/arm/cpu/armv7/start.o
 .rel.text.part_get_info_efi
                0x0005bf90       0x40 arch/arm/cpu/armv7/start.o
 .rel.text.write_gpt_table
                0x0005bfd0        0x0 arch/arm/cpu/armv7/start.o
 .rel.text.gpt_fill_pte
                0x0005bfd0        0x0 arch/arm/cpu/armv7/start.o
 .rel.text.gpt_restore
                0x0005bfd0        0x0 arch/arm/cpu/armv7/start.o
 .rel.text.gpt_verify_headers
                0x0005bfd0        0x0 arch/arm/cpu/armv7/start.o
 .rel.text.gpt_verify_partitions
                0x0005bfd0        0x0 arch/arm/cpu/armv7/start.o
 .rel.text.write_mbr_and_gpt_partitions
                0x0005bfd0        0x0 arch/arm/cpu/armv7/start.o
 .rel.rodata.CSWTCH.46
                0x0005bfd0       0x40 arch/arm/cpu/armv7/start.o
 .rel.u_boot_list_2_part_driver_2_dos
                0x0005c010       0x20 arch/arm/cpu/armv7/start.o
 .rel.u_boot_list_2_part_driver_2_iso
                0x0005c030       0x20 arch/arm/cpu/armv7/start.o
 .rel.u_boot_list_2_part_driver_2_a_efi
                0x0005c050       0x20 arch/arm/cpu/armv7/start.o
 .rel.text.device_bind_common.isra.0
                0x0005c070       0x10 arch/arm/cpu/armv7/start.o
 .rel.text.device_probe
                0x0005c080       0x10 arch/arm/cpu/armv7/start.o
 .rel.text.dev_get_platdata
                0x0005c090       0x10 arch/arm/cpu/armv7/start.o
 .rel.text.dev_get_parent_platdata
                0x0005c0a0        0x0 arch/arm/cpu/armv7/start.o
 .rel.text.dev_get_uclass_platdata
                0x0005c0a0       0x10 arch/arm/cpu/armv7/start.o
 .rel.text.dev_get_priv
                0x0005c0b0       0x10 arch/arm/cpu/armv7/start.o
 .rel.text.dev_get_uclass_priv
                0x0005c0c0       0x10 arch/arm/cpu/armv7/start.o
 .rel.text.dev_get_parent_priv
                0x0005c0d0        0x0 arch/arm/cpu/armv7/start.o
 .rel.text.dev_get_addr_index
                0x0005c0d0        0x8 arch/arm/cpu/armv7/start.o
 .rel.text.dev_get_addr_size_index
                0x0005c0d8        0x0 arch/arm/cpu/armv7/start.o
 .rel.text.dev_get_addr_name
                0x0005c0d8        0x0 arch/arm/cpu/armv7/start.o
 .rel.text.lists_driver_lookup_name
                0x0005c0d8       0x10 arch/arm/cpu/armv7/start.o
 .rel.text.lists_uclass_lookup
                0x0005c0e8       0x10 arch/arm/cpu/armv7/start.o
 .rel.text.lists_bind_drivers
                0x0005c0f8       0x18 arch/arm/cpu/armv7/start.o
 .rel.text.lists_bind_fdt
                0x0005c110       0x28 arch/arm/cpu/armv7/start.o
 .rel.text.dm_root
                0x0005c138        0x8 arch/arm/cpu/armv7/start.o
 .rel.text.dm_init
                0x0005c140       0x10 arch/arm/cpu/armv7/start.o
 .rel.text.dm_scan_platdata
                0x0005c150        0x8 arch/arm/cpu/armv7/start.o
 .rel.text.dm_scan_fdt_node
                0x0005c158       0x10 arch/arm/cpu/armv7/start.o
 .rel.text.uclass_resolve_seq
                0x0005c168        0x8 arch/arm/cpu/armv7/start.o
 .rel.text.device_remove
                0x0005c170       0x20 arch/arm/cpu/armv7/start.o
 .rel.text.simple_bus_post_bind
                0x0005c190        0x8 arch/arm/cpu/armv7/start.o
 .rel.text.show_devices
                0x0005c198       0x30 arch/arm/cpu/armv7/start.o
 .rel.text.dm_dump_all
                0x0005c1c8       0x10 arch/arm/cpu/armv7/start.o
 .rel.text.dm_dump_uclass
                0x0005c1d8       0x20 arch/arm/cpu/armv7/start.o
 .rel.text.blk_driver_lookup_type
                0x0005c1f8       0x10 arch/arm/cpu/armv7/start.o
 .rel.text.blk_list_devices
                0x0005c208        0x0 arch/arm/cpu/armv7/start.o
 .rel.text.blk_print_device_num
                0x0005c208        0x0 arch/arm/cpu/armv7/start.o
 .rel.text.blk_show_device
                0x0005c208        0x0 arch/arm/cpu/armv7/start.o
 .rel.text.blk_get_devnum_by_typename
                0x0005c208       0x10 arch/arm/cpu/armv7/start.o
 .rel.text.lcd_ctrl_init
                0x0005c218       0x20 arch/arm/cpu/armv7/start.o
 .rel.text._input_send_keycodes
                0x0005c238        0x0 arch/arm/cpu/armv7/start.o
 .rel.text.input_add_tables
                0x0005c238        0x0 arch/arm/cpu/armv7/start.o
 .rel.text.input_stdio_register
                0x0005c238        0x0 arch/arm/cpu/armv7/start.o
 .rel.text.key_matrix_decode_fdt
                0x0005c238        0x0 arch/arm/cpu/armv7/start.o
 .rel.rodata.root_info
                0x0005c238        0x8 arch/arm/cpu/armv7/start.o
 .rel.rodata.generic_simple_bus_ids
                0x0005c240       0x10 arch/arm/cpu/armv7/start.o
 .rel.rodata.kbd_to_ansi364
                0x0005c250        0x0 arch/arm/cpu/armv7/start.o
 .rel.u_boot_list_2_driver_2_root_driver
                0x0005c250        0x8 arch/arm/cpu/armv7/start.o
 .rel.u_boot_list_2_uclass_2_root
                0x0005c258        0x8 arch/arm/cpu/armv7/start.o
 .rel.u_boot_list_2_driver_2_simple_bus_drv
                0x0005c260       0x10 arch/arm/cpu/armv7/start.o
 .rel.u_boot_list_2_uclass_2_simple_bus
                0x0005c270       0x10 arch/arm/cpu/armv7/start.o
 .rel.data.kbd_entry
                0x0005c280        0x0 arch/arm/cpu/armv7/start.o
 .rel.text.check_reserved
                0x0005c280       0x10 arch/arm/cpu/armv7/start.o
 .rel.text.dm_gpio_lookup_name
                0x0005c290        0x8 arch/arm/cpu/armv7/start.o
 .rel.text.gpio_direction_input
                0x0005c298        0x8 arch/arm/cpu/armv7/start.o
 .rel.text.gpio_direction_output
                0x0005c2a0        0x8 arch/arm/cpu/armv7/start.o
 .rel.text.dm_gpio_get_value
                0x0005c2a8        0x8 arch/arm/cpu/armv7/start.o
 .rel.text.dm_gpio_set_value
                0x0005c2b0        0x8 arch/arm/cpu/armv7/start.o
 .rel.text.dm_gpio_get_open_drain
                0x0005c2b8        0x0 arch/arm/cpu/armv7/start.o
 .rel.text.dm_gpio_set_open_drain
                0x0005c2b8        0x0 arch/arm/cpu/armv7/start.o
 .rel.text.dm_gpio_set_dir_flags
                0x0005c2b8        0x0 arch/arm/cpu/armv7/start.o
 .rel.text._gpio_request_by_name_nodev
                0x0005c2b8        0x0 arch/arm/cpu/armv7/start.o
 .rel.text.gpio_get_status
                0x0005c2b8       0x28 arch/arm/cpu/armv7/start.o
 .rel.text.gpio_get_list_count
                0x0005c2e0        0x0 arch/arm/cpu/armv7/start.o
 .rel.text.bcm2835_gpio_probe
                0x0005c2e0        0x8 arch/arm/cpu/armv7/start.o
 .rel.rodata.gpio_function
                0x0005c2e8       0x28 arch/arm/cpu/armv7/start.o
 .rel.rodata.bcm2835_gpio_id
                0x0005c310        0x8 arch/arm/cpu/armv7/start.o
 .rel.rodata.gpio_bcm2835_ops
                0x0005c318       0x28 arch/arm/cpu/armv7/start.o
 .rel.u_boot_list_2_uclass_2_gpio
                0x0005c340       0x18 arch/arm/cpu/armv7/start.o
 .rel.u_boot_list_2_driver_2_gpio_bcm2835
                0x0005c358       0x28 arch/arm/cpu/armv7/start.o
 .rel.text.find_mmc_device
                0x0005c380       0x10 arch/arm/cpu/armv7/start.o
 .rel.text.mmc_get_next_devnum
                0x0005c390        0x8 arch/arm/cpu/armv7/start.o
 .rel.text.get_mmc_num
                0x0005c398        0x8 arch/arm/cpu/armv7/start.o
 .rel.text.mmc_do_preinit
                0x0005c3a0        0x8 arch/arm/cpu/armv7/start.o
 .rel.text.mmc_list_init
                0x0005c3a8       0x10 arch/arm/cpu/armv7/start.o
 .rel.text.mmc_list_add
                0x0005c3b8        0x8 arch/arm/cpu/armv7/start.o
 .rel.text.print_mmc_devices
                0x0005c3c0       0x40 arch/arm/cpu/armv7/start.o
 .rel.text.mmc_create
                0x0005c400       0x18 arch/arm/cpu/armv7/start.o
 .rel.text.mmc_set_capacity
                0x0005c418       0x40 arch/arm/cpu/armv7/start.o
 .rel.text.mmc_send_status
                0x0005c458       0x10 arch/arm/cpu/armv7/start.o
 .rel.text.mmc_bread
                0x0005c468       0x10 arch/arm/cpu/armv7/start.o
 .rel.text.mmc_hwpart_config
                0x0005c478       0x48 arch/arm/cpu/armv7/start.o
 .rel.text.mmc_startup
                0x0005c4c0       0xb8 arch/arm/cpu/armv7/start.o
 .rel.text.mmc_start_init
                0x0005c578       0x10 arch/arm/cpu/armv7/start.o
 .rel.text.mmc_initialize
                0x0005c588        0x8 arch/arm/cpu/armv7/start.o
 .rel.text.mmc_berase
                0x0005c590       0x10 arch/arm/cpu/armv7/start.o
 .rel.text.mmc_bwrite
                0x0005c5a0       0x18 arch/arm/cpu/armv7/start.o
 .rel.text.sdhci_reset
                0x0005c5b8       0x10 arch/arm/cpu/armv7/start.o
 .rel.text.sdhci_init
                0x0005c5c8       0x18 arch/arm/cpu/armv7/start.o
 .rel.text.sdhci_set_ios
                0x0005c5e0       0x18 arch/arm/cpu/armv7/start.o
 .rel.text.sdhci_send_command
                0x0005c5f8       0x48 arch/arm/cpu/armv7/start.o
 .rel.text.sdhci_setup_cfg
                0x0005c640       0x18 arch/arm/cpu/armv7/start.o
 .rel.text.add_sdhci
                0x0005c658       0x10 arch/arm/cpu/armv7/start.o
 .rel.text.bcm2835_sdhci_writew
                0x0005c668        0x8 arch/arm/cpu/armv7/start.o
 .rel.text.bcm2835_sdhci_init
                0x0005c670       0x18 arch/arm/cpu/armv7/start.o
 .rel.rodata.sdhci_ops
                0x0005c688       0x18 arch/arm/cpu/armv7/start.o
 .rel.rodata.bcm2835_ops
                0x0005c6a0       0x30 arch/arm/cpu/armv7/start.o
 .rel.u_boot_list_2_blk_driver_2_mmc
                0x0005c6d0       0x18 arch/arm/cpu/armv7/start.o
 .rel.text.serial_post_probe
                0x0005c6e8       0x20 arch/arm/cpu/armv7/start.o
 .rel.text.serial_init
                0x0005c708       0x10 arch/arm/cpu/armv7/start.o
 .rel.text.on_baudrate
                0x0005c718       0x18 arch/arm/cpu/armv7/start.o
 .rel.text.bcm283x_mu_serial_ofdata_to_platdata
                0x0005c730       0x10 arch/arm/cpu/armv7/start.o
 .rel.rodata.bcm283x_mu_serial_id
                0x0005c740        0x8 arch/arm/cpu/armv7/start.o
 .rel.rodata.bcm283x_mu_serial_ops
                0x0005c748       0x20 arch/arm/cpu/armv7/start.o
 .rel.u_boot_list_2_env_clbk_2_baudrate
                0x0005c768       0x10 arch/arm/cpu/armv7/start.o
 .rel.u_boot_list_2_uclass_2_serial
                0x0005c778       0x18 arch/arm/cpu/armv7/start.o
 .rel.u_boot_list_2_driver_2_serial_bcm283x_mu
                0x0005c790       0x28 arch/arm/cpu/armv7/start.o
 .rel.text.spi_set_wordlen
                0x0005c7b8        0x0 arch/arm/cpu/armv7/start.o
 .rel.text.is_eth_dev_on_usb_host
                0x0005c7b8        0x0 arch/arm/cpu/armv7/start.o
 .rel.text.usb_host_eth_scan
                0x0005c7b8       0x50 arch/arm/cpu/armv7/start.o
 .rel.text.smsc95xx_recv
                0x0005c808        0x8 arch/arm/cpu/armv7/start.o
 .rel.text.smsc95xx_init
                0x0005c810       0x20 arch/arm/cpu/armv7/start.o
 .rel.text.smsc95xx_eth_before_probe
                0x0005c830        0x8 arch/arm/cpu/armv7/start.o
 .rel.text.smsc95xx_eth_probe
                0x0005c838        0x8 arch/arm/cpu/armv7/start.o
 .rel.text.smsc95xx_eth_get_info
                0x0005c840       0x40 arch/arm/cpu/armv7/start.o
 .rel.rodata.prob_dev
                0x0005c880       0x18 arch/arm/cpu/armv7/start.o
 .rel.text.dwc_otg_core_reset
                0x0005c898       0x10 arch/arm/cpu/armv7/start.o
 .rel.text.chunk_msg
                0x0005c8a8        0x8 arch/arm/cpu/armv7/start.o
 .rel.text._submit_int_msg
                0x0005c8b0        0x8 arch/arm/cpu/armv7/start.o
 .rel.text.submit_control_msg
                0x0005c8b8       0x38 arch/arm/cpu/armv7/start.o
 .rel.text.submit_bulk_msg
                0x0005c8f0        0x8 arch/arm/cpu/armv7/start.o
 .rel.text.submit_int_msg
                0x0005c8f8        0x8 arch/arm/cpu/armv7/start.o
 .rel.text.usb_lowlevel_init
                0x0005c900       0x48 arch/arm/cpu/armv7/start.o
 .rel.text.usb_lowlevel_stop
                0x0005c948        0x8 arch/arm/cpu/armv7/start.o
 .rel.text.fs_probe_unsupported
                0x0005c950        0x8 arch/arm/cpu/armv7/start.o
 .rel.text.fs_get_info
                0x0005c958        0x8 arch/arm/cpu/armv7/start.o
 .rel.text.fs_close
                0x0005c960        0x8 arch/arm/cpu/armv7/start.o
 .rel.text.fs_set_blk_dev
                0x0005c968       0x28 arch/arm/cpu/armv7/start.o
 .rel.text.fs_uuid
                0x0005c990        0x0 arch/arm/cpu/armv7/start.o
 .rel.text.fs_ls
                0x0005c990        0x8 arch/arm/cpu/armv7/start.o
 .rel.text.fs_exists
                0x0005c998        0x8 arch/arm/cpu/armv7/start.o
 .rel.text.fs_size
                0x0005c9a0        0x8 arch/arm/cpu/armv7/start.o
 .rel.text.fs_read
                0x0005c9a8       0x10 arch/arm/cpu/armv7/start.o
 .rel.text.fs_write
                0x0005c9b8       0x10 arch/arm/cpu/armv7/start.o
 .rel.text.do_size
                0x0005c9c8        0x8 arch/arm/cpu/armv7/start.o
 .rel.text.do_load
                0x0005c9d0       0x50 arch/arm/cpu/armv7/start.o
 .rel.text.do_ls
                0x0005ca20        0x8 arch/arm/cpu/armv7/start.o
 .rel.text.do_save
                0x0005ca28       0x28 arch/arm/cpu/armv7/start.o
 .rel.text.do_fs_uuid
                0x0005ca50        0x0 arch/arm/cpu/armv7/start.o
 .rel.text.do_fs_type
                0x0005ca50       0x10 arch/arm/cpu/armv7/start.o
 .rel.text.get_fs
                0x0005ca60        0x8 arch/arm/cpu/armv7/start.o
 .rel.text.ext4fs_free_node
                0x0005ca68        0x8 arch/arm/cpu/armv7/start.o
 .rel.text.ext4fs_read_file
                0x0005ca70        0x8 arch/arm/cpu/armv7/start.o
 .rel.text.ext4fs_ls
                0x0005ca78       0x10 arch/arm/cpu/armv7/start.o
 .rel.text.ext4fs_read
                0x0005ca88       0x10 arch/arm/cpu/armv7/start.o
 .rel.text.ext4_read_file
                0x0005ca98        0x8 arch/arm/cpu/armv7/start.o
 .rel.text.ext4fs_uuid
                0x0005caa0        0x8 arch/arm/cpu/armv7/start.o
 .rel.text.read_allocated_block
                0x0005caa8       0xb0 arch/arm/cpu/armv7/start.o
 .rel.text.ext4fs_reinit_global
                0x0005cb58       0x48 arch/arm/cpu/armv7/start.o
 .rel.text.ext4fs_close
                0x0005cba0       0x10 arch/arm/cpu/armv7/start.o
 .rel.text.ext4fs_iterate_dir
                0x0005cbb0       0x30 arch/arm/cpu/armv7/start.o
 .rel.text.ext4fs_find_file1
                0x0005cbe0       0x10 arch/arm/cpu/armv7/start.o
 .rel.text.ext4fs_find_file
                0x0005cbf0        0x8 arch/arm/cpu/armv7/start.o
 .rel.text.ext4fs_open
                0x0005cbf8       0x10 arch/arm/cpu/armv7/start.o
 .rel.text.ext4fs_mount
                0x0005cc08       0x10 arch/arm/cpu/armv7/start.o
 .rel.text.ext4fs_set_blk_dev
                0x0005cc18       0x18 arch/arm/cpu/armv7/start.o
 .rel.text.ext4fs_devread
                0x0005cc30       0x40 arch/arm/cpu/armv7/start.o
 .rel.text.downcase
                0x0005cc70        0x8 arch/arm/cpu/armv7/start.o
 .rel.text.disk_read
                0x0005cc78       0x10 arch/arm/cpu/armv7/start.o
 .rel.text.disk_write
                0x0005cc88       0x20 arch/arm/cpu/armv7/start.o
 .rel.text.flush_dirty_fat_buffer
                0x0005cca8        0x8 arch/arm/cpu/armv7/start.o
 .rel.text.get_fatent
                0x0005ccb0        0x8 arch/arm/cpu/armv7/start.o
 .rel.text.get_cluster
                0x0005ccb8        0x8 arch/arm/cpu/armv7/start.o
 .rel.text.set_cluster
                0x0005ccc0        0x8 arch/arm/cpu/armv7/start.o
 .rel.text.read_bootsectandvi
                0x0005ccc8       0x20 arch/arm/cpu/armv7/start.o
 .rel.text.set_name
                0x0005cce8        0x8 arch/arm/cpu/armv7/start.o
 .rel.text.check_overflow
                0x0005ccf0       0x10 arch/arm/cpu/armv7/start.o
 .rel.text.get_vfatname
                0x0005cd00       0x10 arch/arm/cpu/armv7/start.o
 .rel.text.flush_dir_table.constprop.8
                0x0005cd10       0x20 arch/arm/cpu/armv7/start.o
 .rel.text.do_fat_write
                0x0005cd30       0x80 arch/arm/cpu/armv7/start.o
 .rel.text.fat_set_blk_dev
                0x0005cdb0       0x28 arch/arm/cpu/armv7/start.o
 .rel.text.fat_register_device
                0x0005cdd8        0x0 arch/arm/cpu/armv7/start.o
 .rel.text.do_fat_read_at
                0x0005cdd8       0x60 arch/arm/cpu/armv7/start.o
 .rel.text.file_fat_detectfs
                0x0005ce38       0xb0 arch/arm/cpu/armv7/start.o
 .rel.text.file_fat_read_at
                0x0005cee8        0x8 arch/arm/cpu/armv7/start.o
 .rel.text.fat_read_file
                0x0005cef0        0x8 arch/arm/cpu/armv7/start.o
 .rel.text.file_fat_write
                0x0005cef8       0x10 arch/arm/cpu/armv7/start.o
 .rel.text.file_getfsname
                0x0005cf08        0x0 arch/arm/cpu/armv7/start.o
 .rel.text.file_cd
                0x0005cf08        0x0 arch/arm/cpu/armv7/start.o
 .rel.text.file_detectfs
                0x0005cf08        0x0 arch/arm/cpu/armv7/start.o
 .rel.text.file_ls
                0x0005cf08        0x0 arch/arm/cpu/armv7/start.o
 .rel.text.file_read
                0x0005cf08        0x0 arch/arm/cpu/armv7/start.o
 .rel.rodata.filesystems
                0x0005cf08        0x0 arch/arm/cpu/armv7/start.o
 .rel.data.fstypes
                0x0005cf08       0xd8 arch/arm/cpu/armv7/start.o
 .rel.text.efi_load_pe
                0x0005cfe0       0x88 arch/arm/cpu/armv7/start.o
 .rel.text.efi_save_gd
                0x0005d068        0x8 arch/arm/cpu/armv7/start.o
 .rel.text.efi_restore_gd
                0x0005d070       0x10 arch/arm/cpu/armv7/start.o
 .rel.text.efi_allocate_pages_ext
                0x0005d080        0x8 arch/arm/cpu/armv7/start.o
 .rel.text.efi_free_pages_ext
                0x0005d088        0x8 arch/arm/cpu/armv7/start.o
 .rel.text.efi_get_memory_map_ext
                0x0005d090        0x8 arch/arm/cpu/armv7/start.o
 .rel.text.efi_calculate_crc32
                0x0005d098        0x8 arch/arm/cpu/armv7/start.o
 .rel.text.efi_uninstall_multiple_protocol_interfaces
                0x0005d0a0        0x8 arch/arm/cpu/armv7/start.o
 .rel.text.efi_install_multiple_protocol_interfaces
                0x0005d0a8        0x8 arch/arm/cpu/armv7/start.o
 .rel.text.efi_locate_protocol
                0x0005d0b0       0x18 arch/arm/cpu/armv7/start.o
 .rel.text.efi_locate_handle_buffer
                0x0005d0c8        0x8 arch/arm/cpu/armv7/start.o
 .rel.text.efi_protocols_per_handle
                0x0005d0d0        0x8 arch/arm/cpu/armv7/start.o
 .rel.text.efi_open_protocol_information
                0x0005d0d8        0x8 arch/arm/cpu/armv7/start.o
 .rel.text.efi_open_protocol
                0x0005d0e0       0x10 arch/arm/cpu/armv7/start.o
 .rel.text.efi_disconnect_controller
                0x0005d0f0        0x8 arch/arm/cpu/armv7/start.o
 .rel.text.efi_connect_controller
                0x0005d0f8        0x8 arch/arm/cpu/armv7/start.o
 .rel.text.efi_set_watchdog_timer
                0x0005d100        0x8 arch/arm/cpu/armv7/start.o
 .rel.text.efi_stall
                0x0005d108        0x8 arch/arm/cpu/armv7/start.o
 .rel.text.efi_get_next_monotonic_count
                0x0005d110       0x10 arch/arm/cpu/armv7/start.o
 .rel.text.efi_exit_boot_services
                0x0005d120       0x10 arch/arm/cpu/armv7/start.o
 .rel.text.efi_unload_image
                0x0005d130       0x10 arch/arm/cpu/armv7/start.o
 .rel.text.efi_start_image
                0x0005d140       0x18 arch/arm/cpu/armv7/start.o
 .rel.text.efi_load_image
                0x0005d158       0x18 arch/arm/cpu/armv7/start.o
 .rel.text.efi_locate_device_path
                0x0005d170        0x8 arch/arm/cpu/armv7/start.o
 .rel.text.efi_locate_handle
                0x0005d178       0x10 arch/arm/cpu/armv7/start.o
 .rel.text.efi_reinstall_protocol_interface
                0x0005d188        0x8 arch/arm/cpu/armv7/start.o
 .rel.text.efi_install_protocol_interface
                0x0005d190        0x8 arch/arm/cpu/armv7/start.o
 .rel.text.efi_check_event
                0x0005d198        0x8 arch/arm/cpu/armv7/start.o
 .rel.text.efi_close_event
                0x0005d1a0       0x10 arch/arm/cpu/armv7/start.o
 .rel.text.efi_signal_event
                0x0005d1b0        0x8 arch/arm/cpu/armv7/start.o
 .rel.text.efi_set_timer
                0x0005d1b8       0x18 arch/arm/cpu/armv7/start.o
 .rel.text.efi_create_event
                0x0005d1d0       0x10 arch/arm/cpu/armv7/start.o
 .rel.text.efi_free_pool_ext
                0x0005d1e0        0x8 arch/arm/cpu/armv7/start.o
 .rel.text.efi_allocate_pool_ext
                0x0005d1e8        0x8 arch/arm/cpu/armv7/start.o
 .rel.text.efi_restore_tpl
                0x0005d1f0        0x8 arch/arm/cpu/armv7/start.o
 .rel.text.efi_raise_tpl
                0x0005d1f8        0x8 arch/arm/cpu/armv7/start.o
 .rel.text.efi_close_protocol
                0x0005d200        0x8 arch/arm/cpu/armv7/start.o
 .rel.text.efi_uninstall_protocol_interface
                0x0005d208        0x8 arch/arm/cpu/armv7/start.o
 .rel.text.efi_register_protocol_notify
                0x0005d210        0x8 arch/arm/cpu/armv7/start.o
 .rel.text.efi_exit_func
                0x0005d218        0x8 arch/arm/cpu/armv7/start.o
 .rel.text.efi_timer_check
                0x0005d220        0x8 arch/arm/cpu/armv7/start.o
 .rel.text.efi_wait_for_event
                0x0005d228       0x10 arch/arm/cpu/armv7/start.o
 .rel.text.efi_install_configuration_table
                0x0005d238       0x10 arch/arm/cpu/armv7/start.o
 .rel.text.efi_install_configuration_table_ext
                0x0005d248        0x8 arch/arm/cpu/armv7/start.o
 .rel.text.efi_runtime_relocate
                0x0005d250       0x28 arch/arm/cpu/armv7/start.o
 .rel.text.efi_set_virtual_address_map
                0x0005d278       0x18 arch/arm/cpu/armv7/start.o
 .rel.text.efi_add_runtime_mmio
                0x0005d290        0x8 arch/arm/cpu/armv7/start.o
 .rel.text.efi_cout_enable_cursor
                0x0005d298        0x8 arch/arm/cpu/armv7/start.o
 .rel.text.efi_cout_set_cursor_position
                0x0005d2a0       0x10 arch/arm/cpu/armv7/start.o
 .rel.text.efi_cout_clear_screen
                0x0005d2b0        0x8 arch/arm/cpu/armv7/start.o
 .rel.text.efi_cout_output_string
                0x0005d2b8       0x10 arch/arm/cpu/armv7/start.o
 .rel.text.efi_cout_set_mode
                0x0005d2c8        0x8 arch/arm/cpu/armv7/start.o
 .rel.text.efi_cout_query_mode
                0x0005d2d0       0x20 arch/arm/cpu/armv7/start.o
 .rel.text.efi_find_free_memory
                0x0005d2f0        0x8 arch/arm/cpu/armv7/start.o
 .rel.text.efi_add_memory_map
                0x0005d2f8       0x10 arch/arm/cpu/armv7/start.o
 .rel.text.efi_get_memory_map
                0x0005d308        0x8 arch/arm/cpu/armv7/start.o
 .rel.text.efi_memory_init
                0x0005d310       0x10 arch/arm/cpu/armv7/start.o
 .rel.text.efi_gop_register
                0x0005d320       0x38 arch/arm/cpu/armv7/start.o
 .rel.text.efi_disk_add_dev.part.0
                0x0005d358       0x48 arch/arm/cpu/armv7/start.o
 .rel.text.efi_disk_register
                0x0005d3a0       0x20 arch/arm/cpu/armv7/start.o
 .rel.text.efi_net_push
                0x0005d3c0        0x8 arch/arm/cpu/armv7/start.o
 .rel.text.efi_net_get_status
                0x0005d3c8        0x8 arch/arm/cpu/armv7/start.o
 .rel.text.efi_net_receive
                0x0005d3d0       0x28 arch/arm/cpu/armv7/start.o
 .rel.text.efi_net_transmit
                0x0005d3f8        0x8 arch/arm/cpu/armv7/start.o
 .rel.text.efi_net_set_dhcp_ack
                0x0005d400        0x8 arch/arm/cpu/armv7/start.o
 .rel.text.efi_net_register
                0x0005d408       0xb0 arch/arm/cpu/armv7/start.o
 .rel.text.efi_smbios_register
                0x0005d4b8        0x8 arch/arm/cpu/armv7/start.o
 .rel.text.inflate_fast
                0x0005d4c0       0x18 arch/arm/cpu/armv7/start.o
 .rel.text.inflate_table
                0x0005d4d8       0x20 arch/arm/cpu/armv7/start.o
 .rel.text.inflateInit2_
                0x0005d4f8       0x10 arch/arm/cpu/armv7/start.o
 .rel.text.inflate
                0x0005d508      0x188 arch/arm/cpu/armv7/start.o
 .rel.text.crc7
                0x0005d690        0x0 arch/arm/cpu/armv7/start.o
 .rel.text.crc16_ccitt
                0x0005d690        0x8 arch/arm/cpu/armv7/start.o
 .rel.text.zunzip
                0x0005d698       0x28 arch/arm/cpu/armv7/start.o
 .rel.text.gunzip
                0x0005d6c0       0x10 arch/arm/cpu/armv7/start.o
 .rel.text.smbios_write_type3
                0x0005d6d0        0x8 arch/arm/cpu/armv7/start.o
 .rel.text.smbios_write_type2
                0x0005d6d8       0x10 arch/arm/cpu/armv7/start.o
 .rel.text.smbios_write_type0
                0x0005d6e8       0x18 arch/arm/cpu/armv7/start.o
 .rel.text.smbios_write_type1
                0x0005d700       0x18 arch/arm/cpu/armv7/start.o
 .rel.text.smbios_write_type4
                0x0005d718        0x8 arch/arm/cpu/armv7/start.o
 .rel.text.write_smbios_table
                0x0005d720       0x18 arch/arm/cpu/armv7/start.o
 .rel.text.initcall_run_list
                0x0005d738        0x8 arch/arm/cpu/armv7/start.o
 .rel.text.lmb_alloc_base
                0x0005d740        0x8 arch/arm/cpu/armv7/start.o
 .rel.text.list_sort
                0x0005d748        0x8 arch/arm/cpu/armv7/start.o
 .rel.text.fdt_next_tag
                0x0005d750       0x48 arch/arm/cpu/armv7/start.o
 .rel.text.fdt_get_phandle
                0x0005d798        0x0 arch/arm/cpu/armv7/start.o
 .rel.text.fdt_get_alias_namelen
                0x0005d798        0x8 arch/arm/cpu/armv7/start.o
 .rel.text.fdt_node_check_compatible
                0x0005d7a0        0x0 arch/arm/cpu/armv7/start.o
 .rel.text.fdt_strerror
                0x0005d7a0       0x20 arch/arm/cpu/armv7/start.o
 .rel.text.fdt_find_regions
                0x0005d7c0        0x0 arch/arm/cpu/armv7/start.o
 .rel.text.fdt_create_empty_tree
                0x0005d7c0        0x0 arch/arm/cpu/armv7/start.o
 .rel.text.fdt_address_cells
                0x0005d7c0        0x8 arch/arm/cpu/armv7/start.o
 .rel.text.fdt_size_cells
                0x0005d7c8        0x8 arch/arm/cpu/armv7/start.o
 .rel.text.fdt_add_alias_regions
                0x0005d7d0        0x0 arch/arm/cpu/armv7/start.o
 .rel.text.fdt_next_region
                0x0005d7d0        0x0 arch/arm/cpu/armv7/start.o
 .rel.text.fdtdec_get_compatible
                0x0005d7d0        0x0 arch/arm/cpu/armv7/start.o
 .rel.text.fdtdec_get_is_enabled
                0x0005d7d0       0x10 arch/arm/cpu/armv7/start.o
 .rel.text.fdtdec_lookup
                0x0005d7e0        0x0 arch/arm/cpu/armv7/start.o
 .rel.text.fdtdec_next_compatible
                0x0005d7e0        0x0 arch/arm/cpu/armv7/start.o
 .rel.text.fdtdec_next_compatible_subnode
                0x0005d7e0        0x0 arch/arm/cpu/armv7/start.o
 .rel.text.fdtdec_next_alias
                0x0005d7e0        0x0 arch/arm/cpu/armv7/start.o
 .rel.text.fdtdec_add_aliases_for_id
                0x0005d7e0        0x0 arch/arm/cpu/armv7/start.o
 .rel.text.fdtdec_get_alias_seq
                0x0005d7e0        0x8 arch/arm/cpu/armv7/start.o
 .rel.text.fdtdec_get_chosen_prop
                0x0005d7e8        0x8 arch/arm/cpu/armv7/start.o
 .rel.text.fdtdec_prepare_fdt
                0x0005d7f0        0x8 arch/arm/cpu/armv7/start.o
 .rel.text.fdtdec_get_config_int
                0x0005d7f8        0x8 arch/arm/cpu/armv7/start.o
 .rel.text.fdtdec_get_config_bool
                0x0005d800        0x0 arch/arm/cpu/armv7/start.o
 .rel.text.fdtdec_get_config_string
                0x0005d800        0x8 arch/arm/cpu/armv7/start.o
 .rel.text.fdtdec_read_fmap_entry
                0x0005d808        0x0 arch/arm/cpu/armv7/start.o
 .rel.text.fdtdec_decode_memory_region
                0x0005d808        0x0 arch/arm/cpu/armv7/start.o
 .rel.text.fdtdec_decode_display_timing
                0x0005d808        0x0 arch/arm/cpu/armv7/start.o
 .rel.text.fdtdec_setup_memory_size
                0x0005d808        0x0 arch/arm/cpu/armv7/start.o
 .rel.text.fdtdec_setup_memory_banksize
                0x0005d808        0x0 arch/arm/cpu/armv7/start.o
 .rel.text.fdtdec_setup
                0x0005d808       0x10 arch/arm/cpu/armv7/start.o
 .rel.text.match_string
                0x0005d818        0x8 arch/arm/cpu/armv7/start.o
 .rel.text.match_entry
                0x0005d820        0x8 arch/arm/cpu/armv7/start.o
 .rel.text.hcreate_r
                0x0005d828        0x8 arch/arm/cpu/armv7/start.o
 .rel.text.hdestroy_r
                0x0005d830        0x8 arch/arm/cpu/armv7/start.o
 .rel.text.hmatch_r
                0x0005d838        0x8 arch/arm/cpu/armv7/start.o
 .rel.text.hsearch_r
                0x0005d840        0x8 arch/arm/cpu/armv7/start.o
 .rel.text.hdelete_r
                0x0005d848        0x8 arch/arm/cpu/armv7/start.o
 .rel.text.hexport_r
                0x0005d850       0x18 arch/arm/cpu/armv7/start.o
 .rel.text.himport_r
                0x0005d868       0x20 arch/arm/cpu/armv7/start.o
 .rel.text.display_options
                0x0005d888       0x10 arch/arm/cpu/armv7/start.o
 .rel.text.print_freq
                0x0005d898        0x0 arch/arm/cpu/armv7/start.o
 .rel.text.print_size
                0x0005d898       0x28 arch/arm/cpu/armv7/start.o
 .rel.text.print_buffer
                0x0005d8c0       0x28 arch/arm/cpu/armv7/start.o
 .rel.text.crc32_no_comp
                0x0005d8e8        0x8 arch/arm/cpu/armv7/start.o
 .rel.text.hang
                0x0005d8f0        0x8 arch/arm/cpu/armv7/start.o
 .rel.text.skip_spaces
                0x0005d8f8        0x8 arch/arm/cpu/armv7/start.o
 .rel.text.strim
                0x0005d900        0x8 arch/arm/cpu/armv7/start.o
 .rel.text.emit
                0x0005d908        0x8 arch/arm/cpu/armv7/start.o
 .rel.text.store_char_in_data
                0x0005d910        0x8 arch/arm/cpu/armv7/start.o
 .rel.text.match
                0x0005d918       0x98 arch/arm/cpu/armv7/start.o
 .rel.text.quantifier
                0x0005d9b0        0x8 arch/arm/cpu/armv7/start.o
 .rel.text.fixup_branch
                0x0005d9b8        0x8 arch/arm/cpu/armv7/start.o
 .rel.text.compile
                0x0005d9c0       0x28 arch/arm/cpu/armv7/start.o
 .rel.text.slre_compile
                0x0005d9e8        0x8 arch/arm/cpu/armv7/start.o
 .rel.text.strncasecmp
                0x0005d9f0        0x8 arch/arm/cpu/armv7/start.o
 .rel.text.strtok
                0x0005d9f8        0x0 arch/arm/cpu/armv7/start.o
 .rel.text.uuid_str_valid
                0x0005d9f8        0x8 arch/arm/cpu/armv7/start.o
 .rel.text.uuid_bin_to_str
                0x0005da00       0x18 arch/arm/cpu/armv7/start.o
 .rel.text.string
                0x0005da18        0x8 arch/arm/cpu/armv7/start.o
 .rel.text.number
                0x0005da20        0x8 arch/arm/cpu/armv7/start.o
 .rel.text.vsnprintf_internal
                0x0005da28       0x10 arch/arm/cpu/armv7/start.o
 .rel.text.__assert_fail
                0x0005da38        0x0 arch/arm/cpu/armv7/start.o
 .rel.text.simple_itoa
                0x0005da38        0x8 arch/arm/cpu/armv7/start.o
 .rel.text.print_grouped_ull
                0x0005da40        0x0 arch/arm/cpu/armv7/start.o
 .rel.text.simple_strtoul
                0x0005da40        0x8 arch/arm/cpu/armv7/start.o
 .rel.text.simple_strtoull
                0x0005da48        0x8 arch/arm/cpu/armv7/start.o
 .rel.text.trailing_strtoln
                0x0005da50        0x8 arch/arm/cpu/armv7/start.o
 .rel.text.strmhz
                0x0005da58        0x0 arch/arm/cpu/armv7/start.o
 .rel.rodata.efi_boot_services
                0x0005da58      0x150 arch/arm/cpu/armv7/start.o
 .rel.rodata.efi_runtime_detach_list
                0x0005dba8       0x50 arch/arm/cpu/armv7/start.o
 .rel.rodata.efi_con_in
                0x0005dbf8       0x10 arch/arm/cpu/armv7/start.o
 .rel.rodata.efi_con_out
                0x0005dc08       0x50 arch/arm/cpu/armv7/start.o
 .rel.rodata.efi_console_control
                0x0005dc58       0x18 arch/arm/cpu/armv7/start.o
 .rel.rodata.z_errmsg
                0x0005dc70        0x0 arch/arm/cpu/armv7/start.o
 .rel.rodata.smbios_write_funcs
                0x0005dc70       0x38 arch/arm/cpu/armv7/start.o
 .rel.rodata.fdt_errtable
                0x0005dca8       0x70 arch/arm/cpu/armv7/start.o
 .rel.rodata.compat_names
                0x0005dd18        0x0 arch/arm/cpu/armv7/start.o
 .rel.data.efi_obj_list
                0x0005dd18       0x10 arch/arm/cpu/armv7/start.o
 .rel.data.loaded_image_info_obj.7960
                0x0005dd28       0x10 arch/arm/cpu/armv7/start.o
 .rel.data.efi_runtime_mmio
                0x0005dd38       0x10 arch/arm/cpu/armv7/start.o
 .rel.data.efi_mem
                0x0005dd48       0x10 arch/arm/cpu/armv7/start.o
 .rel.data.current
                0x0005dd58        0x0 arch/arm/cpu/armv7/start.o
 .rel.text.arp_init
                0x0005dd58       0x30 arch/arm/cpu/armv7/start.o
 .rel.text.arp_raw_request
                0x0005dd88       0x18 arch/arm/cpu/armv7/start.o
 .rel.text.arp_request
                0x0005dda0       0x38 arch/arm/cpu/armv7/start.o
 .rel.text.arp_timeout_check
                0x0005ddd8       0x28 arch/arm/cpu/armv7/start.o
 .rel.text.arp_receive
                0x0005de00       0x40 arch/arm/cpu/armv7/start.o
 .rel.text.dhcp_extended
                0x0005de40       0x28 arch/arm/cpu/armv7/start.o
 .rel.text.dhcp_process_options
                0x0005de68       0x68 arch/arm/cpu/armv7/start.o
 .rel.text.dhcp_packet_process_options
                0x0005ded0        0x8 arch/arm/cpu/armv7/start.o
 .rel.text.dhcp_handler
                0x0005ded8       0x90 arch/arm/cpu/armv7/start.o
 .rel.text.bootp_reset
                0x0005df68       0x20 arch/arm/cpu/armv7/start.o
 .rel.text.bootp_request
                0x0005df88       0x78 arch/arm/cpu/armv7/start.o
 .rel.text.bootp_timeout_handler
                0x0005e000       0x28 arch/arm/cpu/armv7/start.o
 .rel.text.eth_set_current_to_next
                0x0005e028        0x8 arch/arm/cpu/armv7/start.o
 .rel.text.eth_set_dev
                0x0005e030        0x8 arch/arm/cpu/armv7/start.o
 .rel.text.eth_get_dev_by_name
                0x0005e038       0x28 arch/arm/cpu/armv7/start.o
 .rel.text.eth_get_dev_by_index
                0x0005e060        0x8 arch/arm/cpu/armv7/start.o
 .rel.text.eth_get_dev_index
                0x0005e068        0x8 arch/arm/cpu/armv7/start.o
 .rel.text.eth_write_hwaddr
                0x0005e070       0x30 arch/arm/cpu/armv7/start.o
 .rel.text.on_ethaddr
                0x0005e0a0       0x10 arch/arm/cpu/armv7/start.o
 .rel.text.eth_register
                0x0005e0b0       0x18 arch/arm/cpu/armv7/start.o
 .rel.text.eth_unregister
                0x0005e0c8       0x10 arch/arm/cpu/armv7/start.o
 .rel.text.eth_initialize
                0x0005e0d8       0x78 arch/arm/cpu/armv7/start.o
 .rel.text.eth_init
                0x0005e150       0x10 arch/arm/cpu/armv7/start.o
 .rel.text.eth_halt
                0x0005e160        0x8 arch/arm/cpu/armv7/start.o
 .rel.text.eth_send
                0x0005e168        0x8 arch/arm/cpu/armv7/start.o
 .rel.text.eth_rx
                0x0005e170        0x8 arch/arm/cpu/armv7/start.o
 .rel.text.eth_setenv_enetaddr
                0x0005e178        0x8 arch/arm/cpu/armv7/start.o
 .rel.text.eth_getenv_enetaddr_by_index
                0x0005e180       0x10 arch/arm/cpu/armv7/start.o
 .rel.text.eth_setenv_enetaddr_by_index
                0x0005e190       0x10 arch/arm/cpu/armv7/start.o
 .rel.text.eth_mac_skip
                0x0005e1a0       0x10 arch/arm/cpu/armv7/start.o
 .rel.text.eth_get_name
                0x0005e1b0       0x10 arch/arm/cpu/armv7/start.o
 .rel.text.eth_current_changed
                0x0005e1c0       0x20 arch/arm/cpu/armv7/start.o
 .rel.text.eth_try_another
                0x0005e1e0       0x28 arch/arm/cpu/armv7/start.o
 .rel.text.eth_set_current
                0x0005e208       0x20 arch/arm/cpu/armv7/start.o
 .rel.text.net_clear_handlers
                0x0005e228       0x20 arch/arm/cpu/armv7/start.o
 .rel.text.start_again_timeout_handler
                0x0005e248        0x8 arch/arm/cpu/armv7/start.o
 .rel.text.on_ipaddr
                0x0005e250        0x8 arch/arm/cpu/armv7/start.o
 .rel.text.on_gatewayip
                0x0005e258        0x8 arch/arm/cpu/armv7/start.o
 .rel.text.on_netmask
                0x0005e260        0x8 arch/arm/cpu/armv7/start.o
 .rel.text.on_serverip
                0x0005e268        0x8 arch/arm/cpu/armv7/start.o
 .rel.text.net_init_loop
                0x0005e270       0x10 arch/arm/cpu/armv7/start.o
 .rel.text.net_auto_load
                0x0005e280       0x18 arch/arm/cpu/armv7/start.o
 .rel.text.net_init
                0x0005e298       0x20 arch/arm/cpu/armv7/start.o
 .rel.text.net_start_again
                0x0005e2b8       0x78 arch/arm/cpu/armv7/start.o
 .rel.text.net_loop
                0x0005e330      0x188 arch/arm/cpu/armv7/start.o
 .rel.text.net_get_udp_handler
                0x0005e4b8        0x0 arch/arm/cpu/armv7/start.o
 .rel.text.net_set_udp_handler
                0x0005e4b8       0x10 arch/arm/cpu/armv7/start.o
 .rel.text.net_get_arp_handler
                0x0005e4c8        0x8 arch/arm/cpu/armv7/start.o
 .rel.text.net_set_arp_handler
                0x0005e4d0        0x0 arch/arm/cpu/armv7/start.o
 .rel.text.net_set_timeout_handler
                0x0005e4d0       0x18 arch/arm/cpu/armv7/start.o
 .rel.text.net_process_received_packet
                0x0005e4e8       0x40 arch/arm/cpu/armv7/start.o
 .rel.text.net_eth_hdr_size
                0x0005e528        0x8 arch/arm/cpu/armv7/start.o
 .rel.text.net_set_ether
                0x0005e530       0x10 arch/arm/cpu/armv7/start.o
 .rel.text.net_update_ether
                0x0005e540        0x8 arch/arm/cpu/armv7/start.o
 .rel.text.net_set_ip_header
                0x0005e548        0x8 arch/arm/cpu/armv7/start.o
 .rel.text.net_set_udp_header
                0x0005e550        0x8 arch/arm/cpu/armv7/start.o
 .rel.text.net_send_udp_packet
                0x0005e558       0x40 arch/arm/cpu/armv7/start.o
 .rel.text.on_bootfile
                0x0005e598        0x8 arch/arm/cpu/armv7/start.o
 .rel.text.ip_to_string
                0x0005e5a0        0x8 arch/arm/cpu/armv7/start.o
 .rel.text.vlan_to_string
                0x0005e5a8        0x0 arch/arm/cpu/armv7/start.o
 .rel.text.on_nvlan
                0x0005e5a8        0x8 arch/arm/cpu/armv7/start.o
 .rel.text.on_vlan
                0x0005e5b0        0x8 arch/arm/cpu/armv7/start.o
 .rel.text.rpc_lookup_reply
                0x0005e5b8       0x18 arch/arm/cpu/armv7/start.o
 .rel.text.nfs_mount_reply
                0x0005e5d0       0x18 arch/arm/cpu/armv7/start.o
 .rel.text.nfs_umountall_reply
                0x0005e5e8       0x18 arch/arm/cpu/armv7/start.o
 .rel.text.nfs_lookup_reply
                0x0005e600       0x30 arch/arm/cpu/armv7/start.o
 .rel.text.nfs_readlink_reply
                0x0005e630       0x20 arch/arm/cpu/armv7/start.o
 .rel.text.rpc_req
                0x0005e650       0x40 arch/arm/cpu/armv7/start.o
 .rel.text.nfs_umountall_req
                0x0005e690       0x10 arch/arm/cpu/armv7/start.o
 .rel.text.nfs_read_reply.isra.0
                0x0005e6a0       0x30 arch/arm/cpu/armv7/start.o
 .rel.text.nfs_readlink_req
                0x0005e6d0       0x18 arch/arm/cpu/armv7/start.o
 .rel.text.nfs_lookup_req
                0x0005e6e8       0x10 arch/arm/cpu/armv7/start.o
 .rel.text.nfs_read_req
                0x0005e6f8       0x18 arch/arm/cpu/armv7/start.o
 .rel.text.nfs_send
                0x0005e710       0x68 arch/arm/cpu/armv7/start.o
 .rel.text.nfs_handler
                0x0005e778       0xa8 arch/arm/cpu/armv7/start.o
 .rel.text.nfs_timeout_handler
                0x0005e820       0x20 arch/arm/cpu/armv7/start.o
 .rel.text.nfs_start
                0x0005e840       0x88 arch/arm/cpu/armv7/start.o
 .rel.text.ping_timeout_handler
                0x0005e8c8        0x8 arch/arm/cpu/armv7/start.o
 .rel.text.ping_start
                0x0005e8d0       0x58 arch/arm/cpu/armv7/start.o
 .rel.text.ping_receive
                0x0005e928       0x18 arch/arm/cpu/armv7/start.o
 .rel.text.tftp_send
                0x0005e940       0xc8 arch/arm/cpu/armv7/start.o
 .rel.text.tftp_handler
                0x0005ea08       0xf8 arch/arm/cpu/armv7/start.o
 .rel.text.tftp_timeout_handler
                0x0005eb00       0x40 arch/arm/cpu/armv7/start.o
 .rel.text.tftp_start
                0x0005eb40      0x158 arch/arm/cpu/armv7/start.o
 .rel.u_boot_list_2_env_clbk_2_ethaddr
                0x0005ec98       0x10 arch/arm/cpu/armv7/start.o
 .rel.u_boot_list_2_env_clbk_2_bootfile
                0x0005eca8       0x10 arch/arm/cpu/armv7/start.o
 .rel.u_boot_list_2_env_clbk_2_gatewayip
                0x0005ecb8       0x10 arch/arm/cpu/armv7/start.o
 .rel.u_boot_list_2_env_clbk_2_ipaddr
                0x0005ecc8       0x10 arch/arm/cpu/armv7/start.o
 .rel.u_boot_list_2_env_clbk_2_netmask
                0x0005ecd8       0x10 arch/arm/cpu/armv7/start.o
 .rel.u_boot_list_2_env_clbk_2_nvlan
                0x0005ece8       0x10 arch/arm/cpu/armv7/start.o
 .rel.u_boot_list_2_env_clbk_2_serverip
                0x0005ecf8       0x10 arch/arm/cpu/armv7/start.o
 .rel.u_boot_list_2_env_clbk_2_vlan
                0x0005ed08       0x10 arch/arm/cpu/armv7/start.o
 .rel.text.do_dm
                0x0005ed18        0x8 arch/arm/cpu/armv7/start.o
 .rel.data.test_commands
                0x0005ed20       0x60 arch/arm/cpu/armv7/start.o
 .rel.u_boot_list_2_cmd_2_dm
                0x0005ed80       0x20 arch/arm/cpu/armv7/start.o
 .rel.text.raise
                0x0005eda0        0x0 arch/arm/cpu/armv7/start.o

.rel_dyn_end    0x0005eda0        0x0
 *(.__rel_dyn_end)
 .__rel_dyn_end
                0x0005eda0        0x0 arch/arm/lib/built-in.o

.end            0x0005eda0        0x0
 *(.__end)
 .__end         0x0005eda0        0x0 arch/arm/lib/built-in.o
                0x0005eda0                _image_binary_end = .
                0x0005f000                . = ALIGN (0x1000)

.mmutable
 *(.mmutable)

.bss_start      0x000561b0        0x0
 *(.__bss_start)
 .__bss_start   0x000561b0        0x0 arch/arm/lib/built-in.o
                0x000561b0                __bss_start
                0x000561b0                __bss_base = .

.bss            0x000561b0    0x5f058
 *(.bss*)
 .bss.params    0x000561b0        0x4 arch/arm/lib/built-in.o
 .bss.model     0x000561b4        0x4 board/raspberrypi/rpi/built-in.o
 .bss.rev_scheme
                0x000561b8        0x4 board/raspberrypi/rpi/built-in.o
 .bss.rev_type  0x000561bc        0x4 board/raspberrypi/rpi/built-in.o
 .bss.revision  0x000561c0        0x4 board/raspberrypi/rpi/built-in.o
 .bss.data.7918
                0x000561c4      0x400 cmd/built-in.o
 .bss.working_fdt
                0x000565c4        0x4 cmd/built-in.o
                0x000565c4                working_fdt
 .bss.a_b       0x000565c8       0x18 cmd/built-in.o
 .bss.bin_start_address
                0x000565e0        0x4 cmd/built-in.o
 .bss.his_eol   0x000565e4        0x1 cmd/built-in.o
 .bss.his_pad_char
                0x000565e5        0x1 cmd/built-in.o
 *fill*         0x000565e6        0x2 
 .bss.his_pad_count
                0x000565e8        0x4 cmd/built-in.o
 .bss.his_quote
                0x000565ec        0x1 cmd/built-in.o
 *fill*         0x000565ed        0x3 
 .bss.k_data_escape
                0x000565f0        0x4 cmd/built-in.o
 .bss.k_data_escape_saved
                0x000565f4        0x4 cmd/built-in.o
 .bss.os_data_addr
                0x000565f8        0x4 cmd/built-in.o
 .bss.os_data_addr_saved
                0x000565fc        0x4 cmd/built-in.o
 .bss.os_data_char
                0x00056600        0x4 cmd/built-in.o
 .bss.os_data_init
                0x00056604        0x4 cmd/built-in.o
 .bss.os_data_state
                0x00056608        0x4 cmd/built-in.o
 .bss.os_data_state_saved
                0x0005660c        0x4 cmd/built-in.o
 .bss.send_parms
                0x00056610       0x14 cmd/built-in.o
 .bss.send_ptr  0x00056624        0x4 cmd/built-in.o
 .bss.base_address
                0x00056628        0x4 cmd/built-in.o
 .bss.dp_last_addr
                0x0005662c        0x4 cmd/built-in.o
 .bss.dp_last_size
                0x00056630        0x4 cmd/built-in.o
 .bss.mm_last_addr
                0x00056634        0x4 cmd/built-in.o
 .bss.mm_last_size
                0x00056638        0x4 cmd/built-in.o
 .bss.last_addr_hi
                0x0005663c        0x4 cmd/built-in.o
 .bss.last_addr_lo
                0x00056640        0x4 cmd/built-in.o
 .bss.last_data
                0x00056644        0x4 cmd/built-in.o
 .bss.last_mask
                0x00056648        0x4 cmd/built-in.o
 .bss.last_op   0x0005664c        0x2 cmd/built-in.o
 *fill*         0x0005664e        0x2 
 .bss.last_reg_hi
                0x00056650        0x4 cmd/built-in.o
 .bss.last_reg_lo
                0x00056654        0x4 cmd/built-in.o
 .bss.do_getfile
                0x00056658        0x4 cmd/built-in.o
 .bss.fs_argv   0x0005665c       0x14 cmd/built-in.o
 .bss.is_pxe    0x00056670        0x1 cmd/built-in.o
 .bss.buf.7582  0x00056671       0x28 common/built-in.o
 *fill*         0x00056699        0x3 
 .bss.do_repeat
                0x0005669c        0x4 common/built-in.o
 .bss.flag_repeat
                0x000566a0        0x4 common/built-in.o
 .bss.ifs       0x000566a4        0x4 common/built-in.o
 .bss.last_return_code
                0x000566a8        0x4 common/built-in.o
 .bss.map       0x000566ac      0x100 common/built-in.o
 .bss.the_command.7382
                0x000567ac      0x401 common/built-in.o
 *fill*         0x00056bad        0x3 
 .bss.top_vars  0x00056bb0        0x4 common/built-in.o
 .bss.stored_bootdelay
                0x00056bb4        0x4 common/built-in.o
 .bss.monitor_flash_len
                0x00056bb8        0x4 common/built-in.o
                0x00056bb8                monitor_flash_len
 .bss.images    0x00056bbc      0x130 common/built-in.o
                0x00056bbc                images
 .bss.callback_list
                0x00056cec        0x4 common/built-in.o
 .bss.flags_list
                0x00056cf0        0x4 common/built-in.o
 .bss.current_mii
                0x00056cf4        0x4 common/built-in.o
 .bss.mii_devs  0x00056cf8        0x8 common/built-in.o
 .bss.asynch_allowed
                0x00056d00        0x4 common/built-in.o
 .bss.dev_index
                0x00056d04        0x4 common/built-in.o
 *fill*         0x00056d08       0x38 
 .bss.usb_dev   0x00056d40    0x13000 common/built-in.o
 .bss.usb_started
                0x00069d40        0x1 common/built-in.o
                0x00069d40                usb_started
 *fill*         0x00069d41        0x3 
 .bss.hub_dev   0x00069d44      0x380 common/built-in.o
 .bss.running.9593
                0x0006a0c4        0x4 common/built-in.o
 .bss.usb_hub_index
                0x0006a0c8        0x4 common/built-in.o
 .bss.CBWTag    0x0006a0cc        0x4 common/built-in.o
 *fill*         0x0006a0d0       0x30 
 .bss.usb_ccb   0x0006a100       0xc0 common/built-in.o
 .bss.usb_dev_desc
                0x0006a1c0      0x32c common/built-in.o
 .bss.usb_max_devs
                0x0006a4ec        0x4 common/built-in.o
 .bss.usb_stor  0x0006a4f0      0x16c common/built-in.o
 .bss.lcd_base  0x0006a65c        0x4 common/built-in.o
 .bss.lcd_color_bg
                0x0006a660        0x4 common/built-in.o
 .bss.lcd_color_fg
                0x0006a664        0x4 common/built-in.o
 .bss.lcd_flush_dcache
                0x0006a668        0x1 common/built-in.o
 .bss.lcd_is_enabled
                0x0006a669        0x1 common/built-in.o
                0x0006a669                lcd_is_enabled
 *fill*         0x0006a66a        0x2 
 .bss.lcd_line_length
                0x0006a66c        0x4 common/built-in.o
                0x0006a66c                lcd_line_length
 .bss.cons      0x0006a670       0x24 common/built-in.o
 .bss.kbd_testc_tms
                0x0006a694        0x4 common/built-in.o
 .bss.cd_count  0x0006a698        0xc common/built-in.o
                0x0006a698                cd_count
 .bss.console_devices
                0x0006a6a4        0xc common/built-in.o
                0x0006a6a4                console_devices
 .bss.ctrlc_disabled
                0x0006a6b0        0x4 common/built-in.o
 .bss.ctrlc_was_pressed
                0x0006a6b4        0x4 common/built-in.o
 .bss.tstcdev   0x0006a6b8        0x4 common/built-in.o
 .bss.current_mallinfo
                0x0006a6bc       0x28 common/built-in.o
 .bss.max_sbrked_mem
                0x0006a6e4        0x4 common/built-in.o
 .bss.max_total_mem
                0x0006a6e8        0x4 common/built-in.o
 .bss.mem_malloc_brk
                0x0006a6ec        0x4 common/built-in.o
                0x0006a6ec                mem_malloc_brk
 .bss.mem_malloc_end
                0x0006a6f0        0x4 common/built-in.o
                0x0006a6f0                mem_malloc_end
 .bss.mem_malloc_start
                0x0006a6f4        0x4 common/built-in.o
                0x0006a6f4                mem_malloc_start
 .bss.top_pad   0x0006a6f8        0x4 common/built-in.o
 .bss.devs      0x0006a6fc       0x4c common/built-in.o
 .bss.stdio_devices
                0x0006a748        0xc common/built-in.o
                0x0006a748                stdio_devices
 .bss.console_buffer
                0x0006a754      0x401 common/built-in.o
                0x0006a754                console_buffer
 *fill*         0x0006ab55        0x3 
 .bss.hist_add_idx
                0x0006ab58        0x4 common/built-in.o
 .bss.hist_lines
                0x0006ab5c     0x5014 common/built-in.o
 .bss.hist_list
                0x0006fb70       0x50 common/built-in.o
 .bss.hist_max  0x0006fbc0        0x4 common/built-in.o
 .bss.hist_num  0x0006fbc4        0x4 common/built-in.o
 .bss.initted.7177
                0x0006fbc8        0x4 common/built-in.o
 .bss.tmp_buf   0x0006fbcc      0x400 common/built-in.o
 .bss.tmp_buf.7141
                0x0006ffcc      0x200 common/built-in.o
 .bss.xyz       0x000701cc      0x434 common/built-in.o
 .bss.tmpbuf    0x00070600      0x800 disk/built-in.o
 .bss.name.7151
                0x00070e00       0x25 disk/built-in.o
 *fill*         0x00070e25        0x3 
 .bss.bcm2835_pitch
                0x00070e28        0x4 drivers/built-in.o
 .bss.panel_info
                0x00070e2c       0x10 drivers/built-in.o
                0x00070e2c                panel_info
 .bss.mmc_devices
                0x00070e3c        0x8 drivers/mmc/built-in.o
 .bss.initialized.9442
                0x00070e44        0x4 drivers/mmc/built-in.o
 .bss.aligned_buffer
                0x00070e48        0x4 drivers/mmc/built-in.o
                0x00070e48                aligned_buffer
 .bss.shadow.7694
                0x00070e4c        0x4 drivers/mmc/built-in.o
 .bss.usb_eth   0x00070e50      0x1a4 drivers/usb/eth/built-in.o
 .bss.usb_max_eth_dev
                0x00070ff4        0x4 drivers/usb/eth/built-in.o
 *fill*         0x00070ff8        0x8 
 .bss.__recv_buf.9570
                0x00071000      0xa00 drivers/usb/eth/built-in.o
 .bss.curr_eth_dev
                0x00071a00        0x4 drivers/usb/eth/built-in.o
 *fill*         0x00071a04       0x3c 
 .bss.__aligned_buffer_addr
                0x00071a40    0x10000 drivers/usb/host/built-in.o
 .bss.__status_buffer_addr
                0x00081a40       0x40 drivers/usb/host/built-in.o
 .bss.local     0x00081a80      0x214 drivers/usb/host/built-in.o
 .bss.fs_dev_desc
                0x00081c94        0x4 fs/built-in.o
 .bss.fs_partition
                0x00081c98       0x78 fs/built-in.o
 .bss.fs_type   0x00081d10        0x4 fs/built-in.o
 *fill*         0x00081d14        0x4 
 .bss.ext_fs    0x00081d18       0x48 fs/built-in.o
                0x00081d18                ext_fs
 .bss.ext4fs_file
                0x00081d60        0x4 fs/built-in.o
                0x00081d60                ext4fs_file
 .bss.ext4fs_indir1_block
                0x00081d64        0x4 fs/built-in.o
                0x00081d64                ext4fs_indir1_block
 .bss.ext4fs_indir1_size
                0x00081d68        0x4 fs/built-in.o
                0x00081d68                ext4fs_indir1_size
 .bss.ext4fs_indir2_block
                0x00081d6c        0x4 fs/built-in.o
                0x00081d6c                ext4fs_indir2_block
 .bss.ext4fs_indir2_size
                0x00081d70        0x4 fs/built-in.o
                0x00081d70                ext4fs_indir2_size
 .bss.ext4fs_indir3_block
                0x00081d74        0x4 fs/built-in.o
                0x00081d74                ext4fs_indir3_block
 .bss.ext4fs_indir3_size
                0x00081d78        0x4 fs/built-in.o
                0x00081d78                ext4fs_indir3_size
 .bss.ext4fs_root
                0x00081d7c        0x4 fs/built-in.o
                0x00081d7c                ext4fs_root
 .bss.symlinknest
                0x00081d80        0x4 fs/built-in.o
 .bss.ext4fs_blk_desc
                0x00081d84        0x4 fs/built-in.o
 .bss.part_info
                0x00081d88        0x4 fs/built-in.o
 .bss.part_offset
                0x00081d8c        0x4 fs/built-in.o
                0x00081d8c                part_offset
 .bss.cur_dev   0x00081d90        0x4 fs/built-in.o
 .bss.cur_part_info
                0x00081d94       0x78 fs/built-in.o
 .bss.dir_curclust
                0x00081e0c        0x4 fs/built-in.o
 *fill*         0x00081e10       0x30 
 .bss.do_fat_read_at_block
                0x00081e40    0x10000 fs/built-in.o
                0x00081e40                do_fat_read_at_block
 .bss.empty_dentptr
                0x00091e40        0x4 fs/built-in.o
 *fill*         0x00091e44       0x3c 
 .bss.get_contents_vfatname_block
                0x00091e80    0x10000 fs/built-in.o
                0x00091e80                get_contents_vfatname_block
 .bss.get_dentfromdir_block
                0x000a1e80    0x10000 fs/built-in.o
                0x000a1e80                get_dentfromdir_block
 .bss.num_of_fats
                0x000b1e80        0x1 fs/built-in.o
 *fill*         0x000b1e81        0x3 
 .bss.total_sector
                0x000b1e84        0x4 fs/built-in.o
 .bss.app_gd    0x000b1e88        0x4 lib/built-in.o
 .bss.efi_gd    0x000b1e8c        0x4 lib/built-in.o
 .bss.mono.8008
                0x000b1e90        0x8 lib/built-in.o
 .bss.console_size_queried
                0x000b1e98        0x1 lib/built-in.o
 *fill*         0x000b1e99        0x3 
 .bss.dhcp_ack  0x000b1e9c        0x4 lib/built-in.o
 .bss.new_rx_packet
                0x000b1ea0        0x1 lib/built-in.o
 *fill*         0x000b1ea1        0x3 
 .bss.new_tx_packet
                0x000b1ea4        0x4 lib/built-in.o
 .bss.errno     0x000b1ea8        0x4 lib/built-in.o
                0x000b1ea8                errno
 .bss.local.7249
                0x000b1eac       0x16 lib/built-in.o
 *fill*         0x000b1ec2        0x2 
 .bss.arp_tx_packet
                0x000b1ec4        0x4 net/built-in.o
 .bss.arp_tx_packet_buf
                0x000b1ec8      0x640 net/built-in.o
 .bss.arp_wait_packet_ethaddr
                0x000b2508        0x4 net/built-in.o
                0x000b2508                arp_wait_packet_ethaddr
 .bss.arp_wait_timer_start
                0x000b250c        0x4 net/built-in.o
                0x000b250c                arp_wait_timer_start
 .bss.arp_wait_try
                0x000b2510        0x4 net/built-in.o
                0x000b2510                arp_wait_try
 .bss.arp_wait_tx_packet_size
                0x000b2514        0x4 net/built-in.o
                0x000b2514                arp_wait_tx_packet_size
 .bss.net_arp_wait_packet_ip
                0x000b2518        0x4 net/built-in.o
                0x000b2518                net_arp_wait_packet_ip
 .bss.net_arp_wait_reply_ip
                0x000b251c        0x4 net/built-in.o
 .bss.bootp_ids
                0x000b2520       0x10 net/built-in.o
                0x000b2520                bootp_ids
 .bss.bootp_num_ids
                0x000b2530        0x4 net/built-in.o
                0x000b2530                bootp_num_ids
 .bss.bootp_start
                0x000b2534        0x4 net/built-in.o
                0x000b2534                bootp_start
 .bss.bootp_timeout
                0x000b2538        0x4 net/built-in.o
                0x000b2538                bootp_timeout
 .bss.bootp_try
                0x000b253c        0x4 net/built-in.o
                0x000b253c                bootp_try
 .bss.dhcp_leasetime
                0x000b2540        0x4 net/built-in.o
 .bss.dhcp_option_overload
                0x000b2544        0x1 net/built-in.o
 *fill*         0x000b2545        0x3 
 .bss.dhcp_server_ip
                0x000b2548        0x4 net/built-in.o
 .bss.dhcp_state
                0x000b254c        0x4 net/built-in.o
 .bss.net_hostname
                0x000b2550       0x20 net/built-in.o
                0x000b2550                net_hostname
 .bss.net_nis_domain
                0x000b2570       0x20 net/built-in.o
                0x000b2570                net_nis_domain
 .bss.net_root_path
                0x000b2590       0x40 net/built-in.o
                0x000b2590                net_root_path
 .bss.time_taken_max
                0x000b25d0        0x4 net/built-in.o
 .bss.eth_current
                0x000b25d4        0x4 net/built-in.o
                0x000b25d4                eth_current
 .bss.eth_devices
                0x000b25d8        0x4 net/built-in.o
 .bss.index.7595
                0x000b25dc        0x4 net/built-in.o
 .bss.act.9212  0x000b25e0        0x4 net/built-in.o
 .bss.env_changed_id.9213
                0x000b25e4        0x4 net/built-in.o
 .bss.first_failed.9207
                0x000b25e8        0x4 net/built-in.o
 .bss.arp_packet_handler
                0x000b25ec        0x4 net/built-in.o
 .bss.net_boot_file_expected_size_in_blocks
                0x000b25f0        0x4 net/built-in.o
                0x000b25f0                net_boot_file_expected_size_in_blocks
 .bss.net_boot_file_name
                0x000b25f4      0x400 net/built-in.o
                0x000b25f4                net_boot_file_name
 .bss.net_boot_file_size
                0x000b29f4        0x4 net/built-in.o
                0x000b29f4                net_boot_file_size
 .bss.net_busy_flag
                0x000b29f8        0x4 net/built-in.o
                0x000b29f8                net_busy_flag
 .bss.net_dev_exists
                0x000b29fc        0x4 net/built-in.o
 .bss.net_dns_server
                0x000b2a00        0x4 net/built-in.o
                0x000b2a00                net_dns_server
 .bss.net_ethaddr
                0x000b2a04        0x6 net/built-in.o
                0x000b2a04                net_ethaddr
 *fill*         0x000b2a0a        0x2 
 .bss.net_gateway
                0x000b2a0c        0x4 net/built-in.o
                0x000b2a0c                net_gateway
 .bss.net_ip    0x000b2a10        0x4 net/built-in.o
                0x000b2a10                net_ip
 .bss.net_ip_id
                0x000b2a14        0x4 net/built-in.o
 .bss.net_netmask
                0x000b2a18        0x4 net/built-in.o
                0x000b2a18                net_netmask
 .bss.net_null_ethaddr
                0x000b2a1c        0x6 net/built-in.o
                0x000b2a1c                net_null_ethaddr
 .bss.net_pkt_buf
                0x000b2a22     0x1e40 net/built-in.o
 *fill*         0x000b4862        0x2 
 .bss.net_restart_wrap
                0x000b4864        0x4 net/built-in.o
                0x000b4864                net_restart_wrap
 .bss.net_restarted
                0x000b4868        0x4 net/built-in.o
 .bss.net_rx_packet
                0x000b486c        0x4 net/built-in.o
                0x000b486c                net_rx_packet
 .bss.net_rx_packet_len
                0x000b4870        0x4 net/built-in.o
                0x000b4870                net_rx_packet_len
 .bss.net_rx_packets
                0x000b4874       0x10 net/built-in.o
                0x000b4874                net_rx_packets
 .bss.net_server_ethaddr
                0x000b4884        0x6 net/built-in.o
                0x000b4884                net_server_ethaddr
 *fill*         0x000b488a        0x2 
 .bss.net_server_ip
                0x000b488c        0x4 net/built-in.o
                0x000b488c                net_server_ip
 .bss.net_state
                0x000b4890        0x4 net/built-in.o
                0x000b4890                net_state
 .bss.net_try_count
                0x000b4894        0x4 net/built-in.o
 .bss.net_tx_packet
                0x000b4898        0x4 net/built-in.o
                0x000b4898                net_tx_packet
 .bss.push_packet
                0x000b489c        0x4 net/built-in.o
                0x000b489c                push_packet
 .bss.time_delta
                0x000b48a0        0x4 net/built-in.o
 .bss.time_handler
                0x000b48a4        0x4 net/built-in.o
 .bss.time_start
                0x000b48a8        0x8 net/built-in.o
 .bss.udp_packet_handler
                0x000b48b0        0x4 net/built-in.o
 .bss.dirfh     0x000b48b4       0x20 net/built-in.o
 .bss.filefh    0x000b48d4       0x40 net/built-in.o
 .bss.filefh3_length
                0x000b4914        0x4 net/built-in.o
 .bss.fs_mounted
                0x000b4918        0x4 net/built-in.o
 .bss.nfs_download_state
                0x000b491c        0x4 net/built-in.o
 .bss.nfs_filename
                0x000b4920        0x4 net/built-in.o
 .bss.nfs_len   0x000b4924        0x4 net/built-in.o
 .bss.nfs_our_port
                0x000b4928        0x4 net/built-in.o
 .bss.nfs_path  0x000b492c        0x4 net/built-in.o
 .bss.nfs_path_buff
                0x000b4930      0x800 net/built-in.o
 .bss.nfs_server_ip
                0x000b5130        0x4 net/built-in.o
 .bss.nfs_server_mount_port
                0x000b5134        0x4 net/built-in.o
 .bss.nfs_server_port
                0x000b5138        0x4 net/built-in.o
 .bss.nfs_state
                0x000b513c        0x4 net/built-in.o
 .bss.nfs_timeout_count
                0x000b5140        0x4 net/built-in.o
 .bss.rpc_id    0x000b5144        0x4 net/built-in.o
 .bss.net_ping_ip
                0x000b5148        0x4 net/built-in.o
                0x000b5148                net_ping_ip
 .bss.ping_seq_number
                0x000b514c        0x2 net/built-in.o
 .bss.default_filename
                0x000b514e        0xd net/built-in.o
 *fill*         0x000b515b        0x1 
 .bss.tftp_block_wrap
                0x000b515c        0x4 net/built-in.o
 .bss.tftp_block_wrap_offset
                0x000b5160        0x4 net/built-in.o
 .bss.tftp_cur_block
                0x000b5164        0x4 net/built-in.o
 .bss.tftp_filename
                0x000b5168       0x80 net/built-in.o
 .bss.tftp_our_port
                0x000b51e8        0x4 net/built-in.o
 .bss.tftp_prev_block
                0x000b51ec        0x4 net/built-in.o
 .bss.tftp_remote_ip
                0x000b51f0        0x4 net/built-in.o
 .bss.tftp_remote_port
                0x000b51f4        0x4 net/built-in.o
 .bss.tftp_state
                0x000b51f8        0x4 net/built-in.o
 .bss.tftp_tsize
                0x000b51fc        0x4 net/built-in.o
 .bss.tftp_tsize_num_hash
                0x000b5200        0x2 net/built-in.o
 *fill*         0x000b5202        0x2 
 .bss.timeout_count
                0x000b5204        0x4 net/built-in.o
                0x000b5208                . = ALIGN (0x4)
                0x000b5208                __bss_limit = .

.bss_end        0x000b5208        0x0
 *(.__bss_end)
 .__bss_end     0x000b5208        0x0 arch/arm/lib/built-in.o
                0x000b5208                __bss_end

.dynsym         0x0005eda0       0x30
 *(.dynsym)
 .dynsym        0x0005eda0       0x30 arch/arm/cpu/armv7/start.o

.dynbss         0x0005edd0        0x0
 *(.dynbss)
 .dynbss        0x0005edd0        0x0 arch/arm/cpu/armv7/start.o

.dynstr         0x0005edd0        0x1
 *(.dynstr*)
 .dynstr        0x0005edd0        0x1 arch/arm/cpu/armv7/start.o

.dynamic        0x0005edd4       0x88
 *(.dynamic*)
 .dynamic       0x0005edd4       0x88 arch/arm/cpu/armv7/start.o
                0x0005edd4                _DYNAMIC

.plt            0x0005ee5c        0x0
 *(.plt*)
 .plt           0x0005ee5c        0x0 arch/arm/cpu/armv7/start.o

.interp         0x0005ee5c       0x11
 *(.interp*)
 .interp        0x0005ee5c       0x11 arch/arm/cpu/armv7/start.o

.gnu.hash
 *(.gnu.hash)

.gnu            0x0005ee70        0x0
 *(.gnu*)
 .gnu.version_d
                0x0005ee70        0x0 arch/arm/cpu/armv7/start.o
 .gnu.version   0x0005ee70        0x0 arch/arm/cpu/armv7/start.o
 .gnu.version_r
                0x0005ee70        0x0 arch/arm/cpu/armv7/start.o

.ARM.exidx
 *(.ARM.exidx*)

.gnu.linkonce.armexidx
 *(.gnu.linkonce.armexidx.*)
LOAD arch/arm/cpu/armv7/start.o
START GROUP
LOAD arch/arm/cpu/built-in.o
LOAD arch/arm/cpu/armv7/built-in.o
LOAD arch/arm/lib/built-in.o
LOAD arch/arm/mach-bcm283x/built-in.o
LOAD board/raspberrypi/rpi/built-in.o
LOAD cmd/built-in.o
LOAD common/built-in.o
LOAD disk/built-in.o
LOAD drivers/built-in.o
LOAD drivers/dma/built-in.o
LOAD drivers/gpio/built-in.o
LOAD drivers/i2c/built-in.o
LOAD drivers/mmc/built-in.o
LOAD drivers/mtd/built-in.o
LOAD drivers/mtd/onenand/built-in.o
LOAD drivers/mtd/spi/built-in.o
LOAD drivers/net/built-in.o
LOAD drivers/net/phy/built-in.o
LOAD drivers/pci/built-in.o
LOAD drivers/power/built-in.o
LOAD drivers/power/battery/built-in.o
LOAD drivers/power/domain/built-in.o
LOAD drivers/power/fuel_gauge/built-in.o
LOAD drivers/power/mfd/built-in.o
LOAD drivers/power/pmic/built-in.o
LOAD drivers/power/regulator/built-in.o
LOAD drivers/serial/built-in.o
LOAD drivers/spi/built-in.o
LOAD drivers/usb/common/built-in.o
LOAD drivers/usb/dwc3/built-in.o
LOAD drivers/usb/emul/built-in.o
LOAD drivers/usb/eth/built-in.o
LOAD drivers/usb/gadget/built-in.o
LOAD drivers/usb/gadget/udc/built-in.o
LOAD drivers/usb/host/built-in.o
LOAD drivers/usb/musb-new/built-in.o
LOAD drivers/usb/musb/built-in.o
LOAD drivers/usb/phy/built-in.o
LOAD drivers/usb/ulpi/built-in.o
LOAD dts/built-in.o
LOAD fs/built-in.o
LOAD lib/built-in.o
LOAD net/built-in.o
LOAD test/built-in.o
LOAD test/dm/built-in.o
END GROUP
LOAD arch/arm/lib/eabi_compat.o
LOAD arch/arm/lib/lib.a
OUTPUT(u-boot elf32-littlearm)

.ARM.attributes
                0x00000000       0x29
 .ARM.attributes
                0x00000000       0x1d arch/arm/cpu/armv7/start.o
 .ARM.attributes
                0x0000001d       0x2b arch/arm/cpu/armv7/built-in.o
 .ARM.attributes
                0x00000048       0x29 arch/arm/lib/built-in.o
 .ARM.attributes
                0x00000071       0x2d arch/arm/mach-bcm283x/built-in.o
 .ARM.attributes
                0x0000009e       0x2b board/raspberrypi/rpi/built-in.o
 .ARM.attributes
                0x000000c9       0x2d cmd/built-in.o
 .ARM.attributes
                0x000000f6       0x2d common/built-in.o
 .ARM.attributes
                0x00000123       0x2d disk/built-in.o
 .ARM.attributes
                0x00000150       0x2d drivers/built-in.o
 .ARM.attributes
                0x0000017d       0x2d drivers/gpio/built-in.o
 .ARM.attributes
                0x000001aa       0x2d drivers/mmc/built-in.o
 .ARM.attributes
                0x000001d7       0x2d drivers/serial/built-in.o
 .ARM.attributes
                0x00000204       0x2d drivers/usb/eth/built-in.o
 .ARM.attributes
                0x00000231       0x2d drivers/usb/host/built-in.o
 .ARM.attributes
                0x0000025e       0x1d dts/built-in.o
 .ARM.attributes
                0x0000027b       0x2d fs/built-in.o
 .ARM.attributes
                0x000002a8       0x2d lib/built-in.o
 .ARM.attributes
                0x000002d5       0x2d net/built-in.o
 .ARM.attributes
                0x00000302       0x2d test/dm/built-in.o
 .ARM.attributes
                0x0000032f       0x1d arch/arm/lib/lib.a(ashldi3.o)
 .ARM.attributes
                0x0000034c       0x1d arch/arm/lib/lib.a(lib1funcs.o)
 .ARM.attributes
                0x00000369       0x1d arch/arm/lib/lib.a(lshrdi3.o)
 .ARM.attributes
                0x00000386       0x2d arch/arm/lib/lib.a(div0.o)

.comment        0x00000000       0x34
 .comment       0x00000000       0x34 arch/arm/cpu/armv7/built-in.o
                                 0xd4 (size before relaxing)
 .comment       0x00000034      0x212 arch/arm/lib/built-in.o
 .comment       0x00000034       0xd4 arch/arm/mach-bcm283x/built-in.o
 .comment       0x00000034       0x35 board/raspberrypi/rpi/built-in.o
 .comment       0x00000034      0x70a cmd/built-in.o
 .comment       0x00000034      0x87d common/built-in.o
 .comment       0x00000034       0xd4 disk/built-in.o
 .comment       0x00000034      0x31b drivers/built-in.o
 .comment       0x00000034       0x6a drivers/gpio/built-in.o
 .comment       0x00000034      0x109 drivers/mmc/built-in.o
 .comment       0x00000034       0x6a drivers/serial/built-in.o
 .comment       0x00000034       0x6a drivers/usb/eth/built-in.o
 .comment       0x00000034       0x35 drivers/usb/host/built-in.o
 .comment       0x00000034      0x13e fs/built-in.o
 .comment       0x00000034      0xac4 lib/built-in.o
 .comment       0x00000034      0x1dd net/built-in.o
 .comment       0x00000034       0x35 test/dm/built-in.o
 .comment       0x00000034       0x35 arch/arm/lib/lib.a(div0.o)

.note.GNU-stack
                0x00000000        0x0
 .note.GNU-stack
                0x00000000        0x0 arch/arm/cpu/armv7/built-in.o
 .note.GNU-stack
                0x00000000        0x0 arch/arm/lib/built-in.o
 .note.GNU-stack
                0x00000000        0x0 arch/arm/mach-bcm283x/built-in.o
 .note.GNU-stack
                0x00000000        0x0 board/raspberrypi/rpi/built-in.o
 .note.GNU-stack
                0x00000000        0x0 cmd/built-in.o
 .note.GNU-stack
                0x00000000        0x0 common/built-in.o
 .note.GNU-stack
                0x00000000        0x0 disk/built-in.o
 .note.GNU-stack
                0x00000000        0x0 drivers/built-in.o
 .note.GNU-stack
                0x00000000        0x0 drivers/gpio/built-in.o
 .note.GNU-stack
                0x00000000        0x0 drivers/mmc/built-in.o
 .note.GNU-stack
                0x00000000        0x0 drivers/serial/built-in.o
 .note.GNU-stack
                0x00000000        0x0 drivers/usb/eth/built-in.o
 .note.GNU-stack
                0x00000000        0x0 drivers/usb/host/built-in.o
 .note.GNU-stack
                0x00000000        0x0 fs/built-in.o
 .note.GNU-stack
                0x00000000        0x0 lib/built-in.o
 .note.GNU-stack
                0x00000000        0x0 net/built-in.o
 .note.GNU-stack
                0x00000000        0x0 test/dm/built-in.o
 .note.GNU-stack
                0x00000000        0x0 arch/arm/lib/lib.a(div0.o)

.debug_line     0x00000000    0x262b2
 .debug_line    0x00000000       0x89 arch/arm/cpu/armv7/start.o
 .debug_line    0x00000089      0x6f4 arch/arm/cpu/armv7/built-in.o
 .debug_line    0x0000077d     0x14e8 arch/arm/lib/built-in.o
 .debug_line    0x00001c65      0x557 arch/arm/mach-bcm283x/built-in.o
 .debug_line    0x000021bc      0x43e board/raspberrypi/rpi/built-in.o
 .debug_line    0x000025fa     0x5ca8 cmd/built-in.o
 .debug_line    0x000082a2     0x972e common/built-in.o
 .debug_line    0x000119d0     0x1308 disk/built-in.o
 .debug_line    0x00012cd8     0x2bac drivers/built-in.o
 .debug_line    0x00015884      0xa02 drivers/gpio/built-in.o
 .debug_line    0x00016286     0x1773 drivers/mmc/built-in.o
 .debug_line    0x000179f9      0x6db drivers/serial/built-in.o
 .debug_line    0x000180d4      0x70b drivers/usb/eth/built-in.o
 .debug_line    0x000187df      0x67b drivers/usb/host/built-in.o
 .debug_line    0x00018e5a     0x1fda fs/built-in.o
 .debug_line    0x0001ae34     0x8bfa lib/built-in.o
 .debug_line    0x00023a2e     0x24e7 net/built-in.o
 .debug_line    0x00025f15      0x1d0 test/dm/built-in.o
 .debug_line    0x000260e5       0x4c arch/arm/lib/lib.a(ashldi3.o)
 .debug_line    0x00026131       0xf1 arch/arm/lib/lib.a(lib1funcs.o)
 .debug_line    0x00026222       0x4c arch/arm/lib/lib.a(lshrdi3.o)
 .debug_line    0x0002626e       0x44 arch/arm/lib/lib.a(div0.o)

.debug_info     0x00000000   0x12985b
 .debug_info    0x00000000       0x66 arch/arm/cpu/armv7/start.o
 .debug_info    0x00000066     0x3284 arch/arm/cpu/armv7/built-in.o
 .debug_info    0x000032ea     0xa2b8 arch/arm/lib/built-in.o
 .debug_info    0x0000d5a2     0x375e arch/arm/mach-bcm283x/built-in.o
 .debug_info    0x00010d00     0x3488 board/raspberrypi/rpi/built-in.o
 .debug_info    0x00014188    0x33886 cmd/built-in.o
 .debug_info    0x00047a0e    0x48124 common/built-in.o
 .debug_info    0x0008fb32     0x84d5 disk/built-in.o
 .debug_info    0x00098007    0x156d7 drivers/built-in.o
 .debug_info    0x000ad6de     0x4b7b drivers/gpio/built-in.o
 .debug_info    0x000b2259     0xa945 drivers/mmc/built-in.o
 .debug_info    0x000bcb9e     0x3b62 drivers/serial/built-in.o
 .debug_info    0x000c0700     0x3e82 drivers/usb/eth/built-in.o
 .debug_info    0x000c4582     0x447c drivers/usb/host/built-in.o
 .debug_info    0x000c89fe     0xe082 fs/built-in.o
 .debug_info    0x000d6a80    0x4061a lib/built-in.o
 .debug_info    0x0011709a    0x11771 net/built-in.o
 .debug_info    0x0012880b      0xed5 test/dm/built-in.o
 .debug_info    0x001296e0       0x62 arch/arm/lib/lib.a(ashldi3.o)
 .debug_info    0x00129742       0x60 arch/arm/lib/lib.a(lib1funcs.o)
 .debug_info    0x001297a2       0x62 arch/arm/lib/lib.a(lshrdi3.o)
 .debug_info    0x00129804       0x57 arch/arm/lib/lib.a(div0.o)

.debug_abbrev   0x00000000    0x27de2
 .debug_abbrev  0x00000000       0x14 arch/arm/cpu/armv7/start.o
 .debug_abbrev  0x00000014      0x9bb arch/arm/cpu/armv7/built-in.o
 .debug_abbrev  0x000009cf     0x1919 arch/arm/lib/built-in.o
 .debug_abbrev  0x000022e8      0x78c arch/arm/mach-bcm283x/built-in.o
 .debug_abbrev  0x00002a74      0x423 board/raspberrypi/rpi/built-in.o
 .debug_abbrev  0x00002e97     0x6eaa cmd/built-in.o
 .debug_abbrev  0x00009d41     0x98e8 common/built-in.o
 .debug_abbrev  0x00013629     0x1315 disk/built-in.o
 .debug_abbrev  0x0001493e     0x2f9f drivers/built-in.o
 .debug_abbrev  0x000178dd      0x89a drivers/gpio/built-in.o
 .debug_abbrev  0x00018177     0x164c drivers/mmc/built-in.o
 .debug_abbrev  0x000197c3      0x756 drivers/serial/built-in.o
 .debug_abbrev  0x00019f19      0x7dc drivers/usb/eth/built-in.o
 .debug_abbrev  0x0001a6f5      0x50d drivers/usb/host/built-in.o
 .debug_abbrev  0x0001ac02     0x198c fs/built-in.o
 .debug_abbrev  0x0001c58e     0x9092 lib/built-in.o
 .debug_abbrev  0x00025620     0x249c net/built-in.o
 .debug_abbrev  0x00027abc      0x28e test/dm/built-in.o
 .debug_abbrev  0x00027d4a       0x14 arch/arm/lib/lib.a(ashldi3.o)
 .debug_abbrev  0x00027d5e       0x12 arch/arm/lib/lib.a(lib1funcs.o)
 .debug_abbrev  0x00027d70       0x14 arch/arm/lib/lib.a(lshrdi3.o)
 .debug_abbrev  0x00027d84       0x5e arch/arm/lib/lib.a(div0.o)

.debug_aranges  0x00000000     0x4630
 .debug_aranges
                0x00000000       0x20 arch/arm/cpu/armv7/start.o
 .debug_aranges
                0x00000020      0x100 arch/arm/cpu/armv7/built-in.o
 .debug_aranges
                0x00000120      0x300 arch/arm/lib/built-in.o
 .debug_aranges
                0x00000420       0xa8 arch/arm/mach-bcm283x/built-in.o
 .debug_aranges
                0x000004c8       0x70 board/raspberrypi/rpi/built-in.o
 .debug_aranges
                0x00000538      0x870 cmd/built-in.o
 .debug_aranges
                0x00000da8     0x11c8 common/built-in.o
 .debug_aranges
                0x00001f70      0x198 disk/built-in.o
 .debug_aranges
                0x00002108      0x558 drivers/built-in.o
 .debug_aranges
                0x00002660      0x1c0 drivers/gpio/built-in.o
 .debug_aranges
                0x00002820      0x208 drivers/mmc/built-in.o
 .debug_aranges
                0x00002a28       0xf0 drivers/serial/built-in.o
 .debug_aranges
                0x00002b18       0xb8 drivers/usb/eth/built-in.o
 .debug_aranges
                0x00002bd0       0x68 drivers/usb/host/built-in.o
 .debug_aranges
                0x00002c38      0x320 fs/built-in.o
 .debug_aranges
                0x00002f58     0x11f8 lib/built-in.o
 .debug_aranges
                0x00004150      0x400 net/built-in.o
 .debug_aranges
                0x00004550       0x38 test/dm/built-in.o
 .debug_aranges
                0x00004588       0x20 arch/arm/lib/lib.a(ashldi3.o)
 .debug_aranges
                0x000045a8       0x48 arch/arm/lib/lib.a(lib1funcs.o)
 .debug_aranges
                0x000045f0       0x20 arch/arm/lib/lib.a(lshrdi3.o)
 .debug_aranges
                0x00004610       0x20 arch/arm/lib/lib.a(div0.o)

.debug_frame    0x00000000     0xc848
 .debug_frame   0x00000000      0x1e8 arch/arm/cpu/armv7/built-in.o
 .debug_frame   0x000001e8      0x498 arch/arm/lib/built-in.o
 .debug_frame   0x00000680      0x100 arch/arm/mach-bcm283x/built-in.o
 .debug_frame   0x00000780       0xec board/raspberrypi/rpi/built-in.o
 .debug_frame   0x0000086c     0x1784 cmd/built-in.o
 .debug_frame   0x00001ff0     0x356c common/built-in.o
 .debug_frame   0x0000555c      0x5dc disk/built-in.o
 .debug_frame   0x00005b38      0xe54 drivers/built-in.o
 .debug_frame   0x0000698c      0x5d4 drivers/gpio/built-in.o
 .debug_frame   0x00006f60      0x634 drivers/mmc/built-in.o
 .debug_frame   0x00007594      0x250 drivers/serial/built-in.o
 .debug_frame   0x000077e4      0x220 drivers/usb/eth/built-in.o
 .debug_frame   0x00007a04      0x15c drivers/usb/host/built-in.o
 .debug_frame   0x00007b60      0xaec fs/built-in.o
 .debug_frame   0x0000864c     0x34ec lib/built-in.o
 .debug_frame   0x0000bb38      0xc74 net/built-in.o
 .debug_frame   0x0000c7ac       0x7c test/dm/built-in.o
 .debug_frame   0x0000c828       0x20 arch/arm/lib/lib.a(div0.o)

.debug_str      0x00000000    0x15731
 .debug_str     0x00000000      0xb40 arch/arm/cpu/armv7/built-in.o
                               0x277c (size before relaxing)
 .debug_str     0x00000b40     0x191d arch/arm/lib/built-in.o
                               0x79d8 (size before relaxing)
 .debug_str     0x0000245d      0x1c1 arch/arm/mach-bcm283x/built-in.o
                               0x28ab (size before relaxing)
 .debug_str     0x0000261e      0xaee board/raspberrypi/rpi/built-in.o
                               0x2227 (size before relaxing)
 .debug_str     0x0000310c     0x421f cmd/built-in.o
                              0x1eeeb (size before relaxing)
 .debug_str     0x0000732b     0x46a9 common/built-in.o
                              0x2bfb9 (size before relaxing)
 .debug_str     0x0000b9d4      0xb3b disk/built-in.o
                               0x3e4d (size before relaxing)
 .debug_str     0x0000c50f     0x127c drivers/built-in.o
                               0xe7ff (size before relaxing)
 .debug_str     0x0000d78b      0x5aa drivers/gpio/built-in.o
                               0x2c25 (size before relaxing)
 .debug_str     0x0000dd35      0x78c drivers/mmc/built-in.o
                               0x4d73 (size before relaxing)
 .debug_str     0x0000e4c1      0x2ab drivers/serial/built-in.o
                               0x2a97 (size before relaxing)
 .debug_str     0x0000e76c      0x480 drivers/usb/eth/built-in.o
                               0x22d0 (size before relaxing)
 .debug_str     0x0000ebec      0x59e drivers/usb/host/built-in.o
                               0x1e49 (size before relaxing)
 .debug_str     0x0000f18a      0xfd5 fs/built-in.o
                               0x6d47 (size before relaxing)
 .debug_str     0x0001015f     0x42e4 lib/built-in.o
                              0x2649d (size before relaxing)
 .debug_str     0x00014443     0x125a net/built-in.o
                               0xb49b (size before relaxing)
 .debug_str     0x0001569d       0x79 test/dm/built-in.o
                                0xb0e (size before relaxing)
 .debug_str     0x00015716       0x1b arch/arm/lib/lib.a(div0.o)
                                0x18e (size before relaxing)

.debug_loc      0x00000000    0x5c235
 .debug_loc     0x00000000      0x41e arch/arm/cpu/armv7/built-in.o
 .debug_loc     0x0000041e      0xc5e arch/arm/lib/built-in.o
 .debug_loc     0x0000107c      0x49a arch/arm/mach-bcm283x/built-in.o
 .debug_loc     0x00001516      0x355 board/raspberrypi/rpi/built-in.o
 .debug_loc     0x0000186b     0xd42e cmd/built-in.o
 .debug_loc     0x0000ec99    0x15e99 common/built-in.o
 .debug_loc     0x00024b32     0x2c5d disk/built-in.o
 .debug_loc     0x0002778f     0x5399 drivers/built-in.o
 .debug_loc     0x0002cb28     0x199c drivers/gpio/built-in.o
 .debug_loc     0x0002e4c4     0x47e1 drivers/mmc/built-in.o
 .debug_loc     0x00032ca5      0xa55 drivers/serial/built-in.o
 .debug_loc     0x000336fa     0x118d drivers/usb/eth/built-in.o
 .debug_loc     0x00034887     0x2c62 drivers/usb/host/built-in.o
 .debug_loc     0x000374e9     0x7ea8 fs/built-in.o
 .debug_loc     0x0003f391    0x17cbd lib/built-in.o
 .debug_loc     0x0005704e     0x4f5d net/built-in.o
 .debug_loc     0x0005bfab      0x28a test/dm/built-in.o

.debug_ranges   0x00000000     0x9678
 .debug_ranges  0x00000000      0x108 arch/arm/cpu/armv7/built-in.o
 .debug_ranges  0x00000108      0x388 arch/arm/lib/built-in.o
 .debug_ranges  0x00000490      0x100 arch/arm/mach-bcm283x/built-in.o
 .debug_ranges  0x00000590       0xa0 board/raspberrypi/rpi/built-in.o
 .debug_ranges  0x00000630     0x13e8 cmd/built-in.o
 .debug_ranges  0x00001a18     0x23c0 common/built-in.o
 .debug_ranges  0x00003dd8      0x650 disk/built-in.o
 .debug_ranges  0x00004428      0x970 drivers/built-in.o
 .debug_ranges  0x00004d98      0x240 drivers/gpio/built-in.o
 .debug_ranges  0x00004fd8      0x9b0 drivers/mmc/built-in.o
 .debug_ranges  0x00005988      0x160 drivers/serial/built-in.o
 .debug_ranges  0x00005ae8      0x1f0 drivers/usb/eth/built-in.o
 .debug_ranges  0x00005cd8      0x3f0 drivers/usb/host/built-in.o
 .debug_ranges  0x000060c8      0xb00 fs/built-in.o
 .debug_ranges  0x00006bc8     0x20c0 lib/built-in.o
 .debug_ranges  0x00008c88      0x978 net/built-in.o
 .debug_ranges  0x00009600       0x28 test/dm/built-in.o
 .debug_ranges  0x00009628       0x40 arch/arm/lib/lib.a(lib1funcs.o)
 .debug_ranges  0x00009668       0x10 arch/arm/lib/lib.a(div0.o)
